

Microchip MPLAB XC8 Assembler V2.31 build 20201012212115 
                                                                                               Fri Mar 05 00:34:31 2021

Microchip MPLAB XC8 C Compiler v2.31 (Free license) build 20201012212115 Og1 
     1                           	processor	16F887
     2                           	pagewidth 120
     3                           	opt	flic
     4                           	psect	cinit,global,class=CODE,merge=1,delta=2
     5                           	psect	bssBANK0,global,class=BANK0,space=1,delta=1,noexec
     6                           	psect	cstackCOMMON,global,class=COMMON,space=1,delta=1,noexec
     7                           	psect	cstackBANK0,global,class=BANK0,space=1,delta=1,noexec
     8                           	psect	maintext,global,class=CODE,split=1,delta=2
     9                           	psect	text1,local,class=CODE,merge=1,delta=2
    10                           	psect	text2,local,class=CODE,merge=1,delta=2,group=1
    11                           	psect	text3,local,class=CODE,merge=1,delta=2
    12                           	psect	text4,local,class=CODE,merge=1,delta=2
    13                           	psect	text5,local,class=CODE,merge=1,delta=2,group=1
    14                           	psect	text6,local,class=CODE,merge=1,delta=2,group=1
    15                           	psect	text7,local,class=CODE,merge=1,delta=2
    16                           	psect	text8,local,class=CODE,merge=1,delta=2
    17                           	psect	text9,local,class=CODE,merge=1,delta=2
    18                           	psect	text10,local,class=CODE,merge=1,delta=2
    19                           	psect	text11,local,class=CODE,merge=1,delta=2
    20                           	psect	text12,local,class=CODE,merge=1,delta=2
    21                           	psect	text13,local,class=CODE,merge=1,delta=2
    22                           	psect	text14,local,class=CODE,merge=1,delta=2
    23                           	psect	text15,local,class=CODE,merge=1,delta=2
    24                           	psect	text16,local,class=CODE,merge=1,delta=2,group=1
    25                           	psect	config,global,abs,ovrld,class=CONFIG,space=4,delta=2,noexec
    26                           	dabs	1,0x7E,2
    27  0000                     
    28                           ; Version 2.20
    29                           ; Generated 12/02/2020 GMT
    30                           ; 
    31                           ; Copyright © 2020, Microchip Technology Inc. and its subsidiaries ("Microchip")
    32                           ; All rights reserved.
    33                           ; 
    34                           ; This software is developed by Microchip Technology Inc. and its subsidiaries ("Microch
      +                          ip").
    35                           ; 
    36                           ; Redistribution and use in source and binary forms, with or without modification, are
    37                           ; permitted provided that the following conditions are met:
    38                           ; 
    39                           ;     1. Redistributions of source code must retain the above copyright notice, this lis
      +                          t of
    40                           ;        conditions and the following disclaimer.
    41                           ; 
    42                           ;     2. Redistributions in binary form must reproduce the above copyright notice, this 
      +                          list
    43                           ;        of conditions and the following disclaimer in the documentation and/or other
    44                           ;        materials provided with the distribution.
    45                           ; 
    46                           ;     3. Microchip's name may not be used to endorse or promote products derived from th
      +                          is
    47                           ;        software without specific prior written permission.
    48                           ; 
    49                           ; THIS SOFTWARE IS PROVIDED BY MICROCHIP "AS IS" AND ANY EXPRESS OR IMPLIED WARRANTIES,
    50                           ; INCLUDING, BUT NOT LIMITED TO, THE IMPLIED WARRANTIES OF MERCHANTABILITY AND FITNESS F
      +                          OR
    51                           ; PURPOSE ARE DISCLAIMED.  IN NO EVENT SHALL MICROCHIP BE LIABLE FOR ANY DIRECT, INDIREC
      +                          T,
    52                           ; INCIDENTAL, SPECIAL, EXEMPLARY, OR CONSEQUENTIAL DAMAGES (INCLUDING BUT NOT LIMITED TO
    53                           ; PROCUREMENT OF SUBSTITUTE GOODS OR SERVICES; LOSS OF USE, DATA OR PROFITS; OR BUSINESS
    54                           ; INTERRUPTION) HOWSOEVER CAUSED AND ON ANY THEORY OF LIABILITY, WHETHER IN CONTRACT, ST
      +                          RICT
    55                           ; LIABILITY, OR TORT (INCLUDING NEGLIGENCE OR OTHERWISE) ARISING IN ANY WAY OUT OF THE U
      +                          SE OF
    56                           ; THIS SOFTWARE, EVEN IF ADVISED OF THE POSSIBILITY OF SUCH DAMAGE.
    57                           ; 
    58                           ; 
    59                           ; Code-generator required, PIC16F887 Definitions
    60                           ; 
    61                           ; SFR Addresses
    62  0000                     	;# 
    63  0001                     	;# 
    64  0002                     	;# 
    65  0003                     	;# 
    66  0004                     	;# 
    67  0005                     	;# 
    68  0006                     	;# 
    69  0007                     	;# 
    70  0008                     	;# 
    71  0009                     	;# 
    72  000A                     	;# 
    73  000B                     	;# 
    74  000C                     	;# 
    75  000D                     	;# 
    76  000E                     	;# 
    77  000E                     	;# 
    78  000F                     	;# 
    79  0010                     	;# 
    80  0011                     	;# 
    81  0012                     	;# 
    82  0013                     	;# 
    83  0014                     	;# 
    84  0015                     	;# 
    85  0015                     	;# 
    86  0016                     	;# 
    87  0017                     	;# 
    88  0018                     	;# 
    89  0019                     	;# 
    90  001A                     	;# 
    91  001B                     	;# 
    92  001B                     	;# 
    93  001C                     	;# 
    94  001D                     	;# 
    95  001E                     	;# 
    96  001F                     	;# 
    97  0081                     	;# 
    98  0085                     	;# 
    99  0086                     	;# 
   100  0087                     	;# 
   101  0088                     	;# 
   102  0089                     	;# 
   103  008C                     	;# 
   104  008D                     	;# 
   105  008E                     	;# 
   106  008F                     	;# 
   107  0090                     	;# 
   108  0091                     	;# 
   109  0092                     	;# 
   110  0093                     	;# 
   111  0093                     	;# 
   112  0093                     	;# 
   113  0094                     	;# 
   114  0095                     	;# 
   115  0096                     	;# 
   116  0097                     	;# 
   117  0098                     	;# 
   118  0099                     	;# 
   119  009A                     	;# 
   120  009B                     	;# 
   121  009C                     	;# 
   122  009D                     	;# 
   123  009E                     	;# 
   124  009F                     	;# 
   125  0105                     	;# 
   126  0107                     	;# 
   127  0108                     	;# 
   128  0109                     	;# 
   129  010C                     	;# 
   130  010C                     	;# 
   131  010D                     	;# 
   132  010E                     	;# 
   133  010F                     	;# 
   134  0185                     	;# 
   135  0187                     	;# 
   136  0188                     	;# 
   137  0189                     	;# 
   138  018C                     	;# 
   139  018D                     	;# 
   140  0000                     	;# 
   141  0001                     	;# 
   142  0002                     	;# 
   143  0003                     	;# 
   144  0004                     	;# 
   145  0005                     	;# 
   146  0006                     	;# 
   147  0007                     	;# 
   148  0008                     	;# 
   149  0009                     	;# 
   150  000A                     	;# 
   151  000B                     	;# 
   152  000C                     	;# 
   153  000D                     	;# 
   154  000E                     	;# 
   155  000E                     	;# 
   156  000F                     	;# 
   157  0010                     	;# 
   158  0011                     	;# 
   159  0012                     	;# 
   160  0013                     	;# 
   161  0014                     	;# 
   162  0015                     	;# 
   163  0015                     	;# 
   164  0016                     	;# 
   165  0017                     	;# 
   166  0018                     	;# 
   167  0019                     	;# 
   168  001A                     	;# 
   169  001B                     	;# 
   170  001B                     	;# 
   171  001C                     	;# 
   172  001D                     	;# 
   173  001E                     	;# 
   174  001F                     	;# 
   175  0081                     	;# 
   176  0085                     	;# 
   177  0086                     	;# 
   178  0087                     	;# 
   179  0088                     	;# 
   180  0089                     	;# 
   181  008C                     	;# 
   182  008D                     	;# 
   183  008E                     	;# 
   184  008F                     	;# 
   185  0090                     	;# 
   186  0091                     	;# 
   187  0092                     	;# 
   188  0093                     	;# 
   189  0093                     	;# 
   190  0093                     	;# 
   191  0094                     	;# 
   192  0095                     	;# 
   193  0096                     	;# 
   194  0097                     	;# 
   195  0098                     	;# 
   196  0099                     	;# 
   197  009A                     	;# 
   198  009B                     	;# 
   199  009C                     	;# 
   200  009D                     	;# 
   201  009E                     	;# 
   202  009F                     	;# 
   203  0105                     	;# 
   204  0107                     	;# 
   205  0108                     	;# 
   206  0109                     	;# 
   207  010C                     	;# 
   208  010C                     	;# 
   209  010D                     	;# 
   210  010E                     	;# 
   211  010F                     	;# 
   212  0185                     	;# 
   213  0187                     	;# 
   214  0188                     	;# 
   215  0189                     	;# 
   216  018C                     	;# 
   217  018D                     	;# 
   218  0000                     	;# 
   219  0001                     	;# 
   220  0002                     	;# 
   221  0003                     	;# 
   222  0004                     	;# 
   223  0005                     	;# 
   224  0006                     	;# 
   225  0007                     	;# 
   226  0008                     	;# 
   227  0009                     	;# 
   228  000A                     	;# 
   229  000B                     	;# 
   230  000C                     	;# 
   231  000D                     	;# 
   232  000E                     	;# 
   233  000E                     	;# 
   234  000F                     	;# 
   235  0010                     	;# 
   236  0011                     	;# 
   237  0012                     	;# 
   238  0013                     	;# 
   239  0014                     	;# 
   240  0015                     	;# 
   241  0015                     	;# 
   242  0016                     	;# 
   243  0017                     	;# 
   244  0018                     	;# 
   245  0019                     	;# 
   246  001A                     	;# 
   247  001B                     	;# 
   248  001B                     	;# 
   249  001C                     	;# 
   250  001D                     	;# 
   251  001E                     	;# 
   252  001F                     	;# 
   253  0081                     	;# 
   254  0085                     	;# 
   255  0086                     	;# 
   256  0087                     	;# 
   257  0088                     	;# 
   258  0089                     	;# 
   259  008C                     	;# 
   260  008D                     	;# 
   261  008E                     	;# 
   262  008F                     	;# 
   263  0090                     	;# 
   264  0091                     	;# 
   265  0092                     	;# 
   266  0093                     	;# 
   267  0093                     	;# 
   268  0093                     	;# 
   269  0094                     	;# 
   270  0095                     	;# 
   271  0096                     	;# 
   272  0097                     	;# 
   273  0098                     	;# 
   274  0099                     	;# 
   275  009A                     	;# 
   276  009B                     	;# 
   277  009C                     	;# 
   278  009D                     	;# 
   279  009E                     	;# 
   280  009F                     	;# 
   281  0105                     	;# 
   282  0107                     	;# 
   283  0108                     	;# 
   284  0109                     	;# 
   285  010C                     	;# 
   286  010C                     	;# 
   287  010D                     	;# 
   288  010E                     	;# 
   289  010F                     	;# 
   290  0185                     	;# 
   291  0187                     	;# 
   292  0188                     	;# 
   293  0189                     	;# 
   294  018C                     	;# 
   295  018D                     	;# 
   296  0019                     _TXREG	set	25
   297  000B                     _INTCONbits	set	11
   298  0018                     _RCSTAbits	set	24
   299  0006                     _PORTB	set	6
   300  0013                     _SSPBUF	set	19
   301  0014                     _SSPCON	set	20
   302  0063                     _SSPIF	set	99
   303  0099                     _SPBRG	set	153
   304  008C                     _PIE1bits	set	140
   305  0098                     _TXSTAbits	set	152
   306  0087                     _TRISCbits	set	135
   307  0086                     _TRISB	set	134
   308  0091                     _SSPCON2	set	145
   309  0094                     _SSPSTAT	set	148
   310  0093                     _SSPADD	set	147
   311  04C1                     _TRMT	set	1217
   312  04A2                     _R_W	set	1186
   313  048B                     _RCEN	set	1163
   314  048E                     _ACKSTAT	set	1166
   315  048C                     _ACKEN	set	1164
   316  048D                     _ACKDT	set	1165
   317  048A                     _PEN	set	1162
   318  0489                     _RSEN	set	1161
   319  0488                     _SEN	set	1160
   320  043C                     _TRISC4	set	1084
   321  043B                     _TRISC3	set	1083
   322  0187                     _BAUDCTLbits	set	391
   323                           
   324                           	psect	cinit
   325  07EB                     start_initialization:	
   326                           ; #config settings
   327                           
   328  07EB                     __initialization:
   329                           
   330                           ; Clear objects allocated to BANK0
   331  07EB  1283               	bcf	3,5	;RP0=0, select bank0
   332  07EC  1303               	bcf	3,6	;RP1=0, select bank0
   333  07ED  01CC               	clrf	__pbssBANK0& (0+127)
   334  07EE  01CD               	clrf	(__pbssBANK0+1)& (0+127)
   335  07EF  01CE               	clrf	(__pbssBANK0+2)& (0+127)
   336  07F0  01CF               	clrf	(__pbssBANK0+3)& (0+127)
   337  07F1  01D0               	clrf	(__pbssBANK0+4)& (0+127)
   338  07F2  01D1               	clrf	(__pbssBANK0+5)& (0+127)
   339  07F3  01D2               	clrf	(__pbssBANK0+6)& (0+127)
   340  07F4  01D3               	clrf	(__pbssBANK0+7)& (0+127)
   341  07F5  01D4               	clrf	(__pbssBANK0+8)& (0+127)
   342  07F6  01D5               	clrf	(__pbssBANK0+9)& (0+127)
   343  07F7  01D6               	clrf	(__pbssBANK0+10)& (0+127)
   344  07F8  01D7               	clrf	(__pbssBANK0+11)& (0+127)
   345  07F9  01D8               	clrf	(__pbssBANK0+12)& (0+127)
   346  07FA  01D9               	clrf	(__pbssBANK0+13)& (0+127)
   347  07FB  01DA               	clrf	(__pbssBANK0+14)& (0+127)
   348  07FC                     end_of_initialization:	
   349                           ;End of C runtime variable initialization code
   350                           
   351  07FC                     __end_of__initialization:
   352  07FC  0183               	clrf	3
   353  07FD  120A  118A  2A90   	ljmp	_main	;jump to C main() function
   354                           
   355                           	psect	bssBANK0
   356  004C                     __pbssBANK0:
   357  004C                     _out:
   358  004C                     	ds	15
   359                           
   360                           	psect	cstackCOMMON
   361  0070                     __pcstackCOMMON:
   362  0070                     ?_I2C_init:
   363  0070                     ?_I2C_start:	
   364                           ; 1 bytes @ 0x0
   365                           
   366  0070                     ??_I2C_start:	
   367                           ; 1 bytes @ 0x0
   368                           
   369  0070                     ?_I2C_restart:	
   370                           ; 1 bytes @ 0x0
   371                           
   372  0070                     ??_I2C_restart:	
   373                           ; 1 bytes @ 0x0
   374                           
   375  0070                     ?_I2C_stop:	
   376                           ; 1 bytes @ 0x0
   377                           
   378  0070                     ??_I2C_stop:	
   379                           ; 1 bytes @ 0x0
   380                           
   381  0070                     ?_I2C_ack:	
   382                           ; 1 bytes @ 0x0
   383                           
   384  0070                     ??_I2C_ack:	
   385                           ; 1 bytes @ 0x0
   386                           
   387  0070                     ?_I2C_write:	
   388                           ; 1 bytes @ 0x0
   389                           
   390  0070                     ??_I2C_write:	
   391                           ; 1 bytes @ 0x0
   392                           
   393  0070                     ?_I2C_read:	
   394                           ; 1 bytes @ 0x0
   395                           
   396  0070                     ?_LM75_init:	
   397                           ; 1 bytes @ 0x0
   398                           
   399  0070                     ?_setup:	
   400                           ; 1 bytes @ 0x0
   401                           
   402  0070                     ??_setup:	
   403                           ; 1 bytes @ 0x0
   404                           
   405  0070                     ?_main:	
   406                           ; 1 bytes @ 0x0
   407                           
   408  0070                     ?___aldiv:	
   409                           ; 1 bytes @ 0x0
   410                           
   411  0070                     ?___fladd:	
   412                           ; 4 bytes @ 0x0
   413                           
   414  0070                     ?___xxtofl:	
   415                           ; 4 bytes @ 0x0
   416                           
   417  0070                     I2C_ack@acknowledge:	
   418                           ; 4 bytes @ 0x0
   419                           
   420  0070                     I2C_write@data:	
   421                           ; 1 bytes @ 0x0
   422                           
   423  0070                     ___aldiv@divisor:	
   424                           ; 1 bytes @ 0x0
   425                           
   426  0070                     ___fladd@b:	
   427                           ; 4 bytes @ 0x0
   428                           
   429  0070                     ___xxtofl@val:	
   430                           ; 4 bytes @ 0x0
   431                           
   432                           
   433                           ; 4 bytes @ 0x0
   434  0070                     	ds	1
   435  0071                     ?_LM75_set:
   436  0071                     ??_I2C_read:	
   437                           ; 1 bytes @ 0x1
   438                           
   439  0071                     I2C_read@acknowledge:	
   440                           ; 1 bytes @ 0x1
   441                           
   442  0071                     LM75_set@data:	
   443                           ; 1 bytes @ 0x1
   444                           
   445                           
   446                           ; 2 bytes @ 0x1
   447  0071                     	ds	2
   448  0073                     ??_LM75_set:
   449  0073                     LM75_set@regAddress:	
   450                           ; 1 bytes @ 0x3
   451                           
   452                           
   453                           ; 1 bytes @ 0x3
   454  0073                     	ds	1
   455  0074                     ??___xxtofl:
   456  0074                     ___aldiv@dividend:	
   457                           ; 1 bytes @ 0x4
   458                           
   459  0074                     ___fladd@a:	
   460                           ; 4 bytes @ 0x4
   461                           
   462                           
   463                           ; 4 bytes @ 0x4
   464  0074                     	ds	4
   465  0078                     ??___aldiv:
   466  0078                     ___fladd@signs:	
   467                           ; 1 bytes @ 0x8
   468                           
   469  0078                     ___xxtofl@sign:	
   470                           ; 1 bytes @ 0x8
   471                           
   472                           
   473                           ; 1 bytes @ 0x8
   474  0078                     	ds	1
   475  0079                     ??_I2C_init:
   476  0079                     ___fladd@aexp:	
   477                           ; 1 bytes @ 0x9
   478                           
   479  0079                     ___xxtofl@exp:	
   480                           ; 1 bytes @ 0x9
   481                           
   482                           
   483                           ; 1 bytes @ 0x9
   484  0079                     	ds	1
   485  007A                     ___fladd@bexp:
   486  007A                     ___xxtofl@arg:	
   487                           ; 1 bytes @ 0xA
   488                           
   489                           
   490                           ; 4 bytes @ 0xA
   491  007A                     	ds	1
   492  007B                     ___fladd@grs:
   493                           
   494                           ; 1 bytes @ 0xB
   495  007B                     	ds	2
   496  007D                     I2C_init@speed:
   497                           
   498                           ; 1 bytes @ 0xD
   499  007D                     	ds	1
   500  007E                     ??_LM75_init:
   501                           
   502                           	psect	cstackBANK0
   503  0020                     __pcstackBANK0:	
   504                           ; 1 bytes @ 0xE
   505                           
   506  0020                     ??___fladd:
   507  0020                     ___aldiv@counter:	
   508                           ; 1 bytes @ 0x0
   509                           
   510                           
   511                           ; 1 bytes @ 0x0
   512  0020                     	ds	1
   513  0021                     ___aldiv@sign:
   514                           
   515                           ; 1 bytes @ 0x1
   516  0021                     	ds	1
   517  0022                     ___aldiv@quotient:
   518                           
   519                           ; 4 bytes @ 0x2
   520  0022                     	ds	6
   521  0028                     ?_toFloat:
   522  0028                     toFloat@tempr:	
   523                           ; 4 bytes @ 0x8
   524                           
   525                           
   526                           ; 2 bytes @ 0x8
   527  0028                     	ds	4
   528  002C                     ??_toFloat:
   529                           
   530                           ; 1 bytes @ 0xC
   531  002C                     	ds	2
   532  002E                     toFloat@isfraction:
   533                           
   534                           ; 1 bytes @ 0xE
   535  002E                     	ds	1
   536  002F                     toFloat@result:
   537                           
   538                           ; 4 bytes @ 0xF
   539  002F                     	ds	4
   540  0033                     ?_LM75_read:
   541                           
   542                           ; 4 bytes @ 0x13
   543  0033                     	ds	4
   544  0037                     ??_LM75_read:
   545                           
   546                           ; 1 bytes @ 0x17
   547  0037                     	ds	2
   548  0039                     LM75_read@MSB:
   549                           
   550                           ; 2 bytes @ 0x19
   551  0039                     	ds	2
   552  003B                     LM75_read@LSB:
   553                           
   554                           ; 2 bytes @ 0x1B
   555  003B                     	ds	2
   556  003D                     LM75_read@regAddress:
   557                           
   558                           ; 1 bytes @ 0x1D
   559  003D                     	ds	1
   560  003E                     ?___fltol:
   561  003E                     ___fltol@f1:	
   562                           ; 4 bytes @ 0x1E
   563                           
   564                           
   565                           ; 4 bytes @ 0x1E
   566  003E                     	ds	4
   567  0042                     ??___fltol:
   568                           
   569                           ; 1 bytes @ 0x22
   570  0042                     	ds	5
   571  0047                     ___fltol@sign1:
   572                           
   573                           ; 1 bytes @ 0x27
   574  0047                     	ds	1
   575  0048                     ___fltol@exp1:
   576                           
   577                           ; 1 bytes @ 0x28
   578  0048                     	ds	1
   579  0049                     ??_main:
   580                           
   581                           ; 1 bytes @ 0x29
   582  0049                     	ds	3
   583                           
   584                           	psect	maintext
   585  0290                     __pmaintext:	
   586 ;;
   587 ;;Main: autosize = 0, tempsize = 3, incstack = 0, save=0
   588 ;;
   589 ;; *************** function _main *****************
   590 ;; Defined at:
   591 ;;		line 80 in file "main.c"
   592 ;; Parameters:    Size  Location     Type
   593 ;;		None
   594 ;; Auto vars:     Size  Location     Type
   595 ;;		None
   596 ;; Return value:  Size  Location     Type
   597 ;;                  1    wreg      void 
   598 ;; Registers used:
   599 ;;		wreg, status,2, status,0, btemp+1, pclath, cstack
   600 ;; Tracked objects:
   601 ;;		On entry : B00/0
   602 ;;		On exit  : 0/0
   603 ;;		Unchanged: 0/0
   604 ;; Data sizes:     COMMON   BANK0   BANK1   BANK3   BANK2
   605 ;;      Params:         0       0       0       0       0
   606 ;;      Locals:         0       0       0       0       0
   607 ;;      Temps:          0       3       0       0       0
   608 ;;      Totals:         0       3       0       0       0
   609 ;;Total ram usage:        3 bytes
   610 ;; Hardware stack levels required when called:    3
   611 ;; This function calls:
   612 ;;		_LM75_init
   613 ;;		_LM75_read
   614 ;;		___fltol
   615 ;;		_setup
   616 ;; This function is called by:
   617 ;;		Startup code after reset
   618 ;; This function uses a non-reentrant model
   619 ;;
   620                           
   621                           
   622                           ;psect for function _main
   623  0290                     _main:
   624  0290                     l1588:	
   625                           ;incstack = 0
   626                           ; Regs used in _main: [wreg+status,2+status,0+btemp+1+pclath+cstack]
   627                           
   628                           
   629                           ;main.c: 82:   LM75_init();
   630  0290  120A  118A  2226  120A  118A  	fcall	_LM75_init
   631  0295                     l1590:
   632                           
   633                           ;main.c: 84:   setup ();
   634  0295  120A  118A  21CF  120A  118A  	fcall	_setup
   635  029A                     l1592:
   636                           
   637                           ;main.c: 87:   {;main.c: 90:     PORTB = LM75_read(0x00);
   638  029A  3000               	movlw	0
   639  029B  120A  118A  231D  120A  118A  	fcall	_LM75_read
   640  02A0  1283               	bcf	3,5	;RP0=0, select bank0
   641  02A1  1303               	bcf	3,6	;RP1=0, select bank0
   642  02A2  0836               	movf	?_LM75_read+3,w
   643  02A3  00C1               	movwf	___fltol@f1+3
   644  02A4  0835               	movf	?_LM75_read+2,w
   645  02A5  00C0               	movwf	___fltol@f1+2
   646  02A6  0834               	movf	?_LM75_read+1,w
   647  02A7  00BF               	movwf	___fltol@f1+1
   648  02A8  0833               	movf	?_LM75_read,w
   649  02A9  00BE               	movwf	___fltol@f1
   650  02AA  120A  118A  2380  120A  118A  	fcall	___fltol
   651  02AF  1283               	bcf	3,5	;RP0=0, select bank0
   652  02B0  1303               	bcf	3,6	;RP1=0, select bank0
   653  02B1  083E               	movf	?___fltol,w
   654  02B2  0086               	movwf	6	;volatile
   655  02B3                     l1594:
   656                           
   657                           ;main.c: 91:     _delay((unsigned long)((1000)*(4000000/4000.0)));
   658  02B3  3006               	movlw	6
   659  02B4  1283               	bcf	3,5	;RP0=0, select bank0
   660  02B5  1303               	bcf	3,6	;RP1=0, select bank0
   661  02B6  00CB               	movwf	??_main+2
   662  02B7  3013               	movlw	19
   663  02B8  00CA               	movwf	??_main+1
   664  02B9  30AD               	movlw	173
   665  02BA  00C9               	movwf	??_main
   666  02BB                     u1867:
   667  02BB  0BC9               	decfsz	??_main,f
   668  02BC  2ABB               	goto	u1867
   669  02BD  0BCA               	decfsz	??_main+1,f
   670  02BE  2ABB               	goto	u1867
   671  02BF  0BCB               	decfsz	??_main+2,f
   672  02C0  2ABB               	goto	u1867
   673  02C1  2A9A               	goto	l1592
   674  02C2  120A  118A  2800   	ljmp	start
   675  02C5                     __end_of_main:
   676                           
   677                           	psect	text1
   678  01CF                     __ptext1:	
   679 ;; *************** function _setup *****************
   680 ;; Defined at:
   681 ;;		line 75 in file "main.c"
   682 ;; Parameters:    Size  Location     Type
   683 ;;		None
   684 ;; Auto vars:     Size  Location     Type
   685 ;;		None
   686 ;; Return value:  Size  Location     Type
   687 ;;                  1    wreg      void 
   688 ;; Registers used:
   689 ;;		status,2
   690 ;; Tracked objects:
   691 ;;		On entry : 0/0
   692 ;;		On exit  : 0/0
   693 ;;		Unchanged: 0/0
   694 ;; Data sizes:     COMMON   BANK0   BANK1   BANK3   BANK2
   695 ;;      Params:         0       0       0       0       0
   696 ;;      Locals:         0       0       0       0       0
   697 ;;      Temps:          0       0       0       0       0
   698 ;;      Totals:         0       0       0       0       0
   699 ;;Total ram usage:        0 bytes
   700 ;; Hardware stack levels used:    1
   701 ;; This function calls:
   702 ;;		Nothing
   703 ;; This function is called by:
   704 ;;		_main
   705 ;; This function uses a non-reentrant model
   706 ;;
   707                           
   708                           
   709                           ;psect for function _setup
   710  01CF                     _setup:
   711  01CF                     l1096:	
   712                           ;incstack = 0
   713                           ; Regs used in _setup: [status,2]
   714                           
   715                           
   716                           ;main.c: 76:     TRISB = 0;
   717  01CF  1683               	bsf	3,5	;RP0=1, select bank1
   718  01D0  1303               	bcf	3,6	;RP1=0, select bank1
   719  01D1  0186               	clrf	6	;volatile
   720                           
   721                           ;main.c: 77:     PORTB = 0;
   722  01D2  1283               	bcf	3,5	;RP0=0, select bank0
   723  01D3  1303               	bcf	3,6	;RP1=0, select bank0
   724  01D4  0186               	clrf	6	;volatile
   725  01D5                     l108:
   726  01D5  0008               	return
   727  01D6                     __end_of_setup:
   728                           
   729                           	psect	text2
   730  0380                     __ptext2:	
   731 ;; *************** function ___fltol *****************
   732 ;; Defined at:
   733 ;;		line 43 in file "C:\Program Files\Microchip\xc8\v2.31\pic\sources\c90\common\fltol.c"
   734 ;; Parameters:    Size  Location     Type
   735 ;;  f1              4   30[BANK0 ] void 
   736 ;; Auto vars:     Size  Location     Type
   737 ;;  exp1            1   40[BANK0 ] unsigned char 
   738 ;;  sign1           1   39[BANK0 ] unsigned char 
   739 ;; Return value:  Size  Location     Type
   740 ;;                  4   30[BANK0 ] long 
   741 ;; Registers used:
   742 ;;		wreg, status,2, status,0
   743 ;; Tracked objects:
   744 ;;		On entry : 0/0
   745 ;;		On exit  : 0/0
   746 ;;		Unchanged: 0/0
   747 ;; Data sizes:     COMMON   BANK0   BANK1   BANK3   BANK2
   748 ;;      Params:         0       4       0       0       0
   749 ;;      Locals:         0       2       0       0       0
   750 ;;      Temps:          0       5       0       0       0
   751 ;;      Totals:         0      11       0       0       0
   752 ;;Total ram usage:       11 bytes
   753 ;; Hardware stack levels used:    1
   754 ;; This function calls:
   755 ;;		Nothing
   756 ;; This function is called by:
   757 ;;		_main
   758 ;; This function uses a non-reentrant model
   759 ;;
   760                           
   761                           
   762                           ;psect for function ___fltol
   763  0380                     ___fltol:
   764  0380                     l1530:	
   765                           ;incstack = 0
   766                           ; Regs used in ___fltol: [wreg+status,2+status,0]
   767                           
   768  0380  1003               	clrc
   769  0381  1283               	bcf	3,5	;RP0=0, select bank0
   770  0382  1303               	bcf	3,6	;RP1=0, select bank0
   771  0383  0D40               	rlf	___fltol@f1+2,w
   772  0384  0D41               	rlf	___fltol@f1+3,w
   773  0385  00C2               	movwf	??___fltol
   774  0386  0842               	movf	??___fltol,w
   775  0387  00C8               	movwf	___fltol@exp1
   776  0388  0848               	movf	___fltol@exp1,w
   777  0389  1D03               	btfss	3,2
   778  038A  2B8C               	goto	u1761
   779  038B  2B8D               	goto	u1760
   780  038C                     u1761:
   781  038C  2B96               	goto	l1536
   782  038D                     u1760:
   783  038D                     l1532:
   784  038D  3000               	movlw	0
   785  038E  00C1               	movwf	?___fltol+3
   786  038F  3000               	movlw	0
   787  0390  00C0               	movwf	?___fltol+2
   788  0391  3000               	movlw	0
   789  0392  00BF               	movwf	?___fltol+1
   790  0393  3000               	movlw	0
   791  0394  00BE               	movwf	?___fltol
   792  0395  2BFB               	goto	l430
   793  0396                     l1536:
   794  0396  083E               	movf	___fltol@f1,w
   795  0397  00C2               	movwf	??___fltol
   796  0398  083F               	movf	___fltol@f1+1,w
   797  0399  00C3               	movwf	??___fltol+1
   798  039A  0840               	movf	___fltol@f1+2,w
   799  039B  00C4               	movwf	??___fltol+2
   800  039C  0841               	movf	___fltol@f1+3,w
   801  039D  00C5               	movwf	??___fltol+3
   802  039E  301F               	movlw	31
   803  039F                     u1775:
   804  039F  1003               	clrc
   805  03A0  0CC5               	rrf	??___fltol+3,f
   806  03A1  0CC4               	rrf	??___fltol+2,f
   807  03A2  0CC3               	rrf	??___fltol+1,f
   808  03A3  0CC2               	rrf	??___fltol,f
   809  03A4                     u1770:
   810  03A4  3EFF               	addlw	-1
   811  03A5  1D03               	skipz
   812  03A6  2B9F               	goto	u1775
   813  03A7  0842               	movf	??___fltol,w
   814  03A8  00C6               	movwf	??___fltol+4
   815  03A9  0846               	movf	??___fltol+4,w
   816  03AA  00C7               	movwf	___fltol@sign1
   817  03AB                     l1538:
   818  03AB  17C0               	bsf	___fltol@f1+2,7
   819  03AC                     l1540:
   820  03AC  30FF               	movlw	255
   821  03AD  05BE               	andwf	___fltol@f1,f
   822  03AE  30FF               	movlw	255
   823  03AF  05BF               	andwf	___fltol@f1+1,f
   824  03B0  30FF               	movlw	255
   825  03B1  05C0               	andwf	___fltol@f1+2,f
   826  03B2  3000               	movlw	0
   827  03B3  05C1               	andwf	___fltol@f1+3,f
   828  03B4                     l1542:
   829  03B4  3096               	movlw	150
   830  03B5  02C8               	subwf	___fltol@exp1,f
   831  03B6                     l1544:
   832  03B6  1FC8               	btfss	___fltol@exp1,7
   833  03B7  2BB9               	goto	u1781
   834  03B8  2BBA               	goto	u1780
   835  03B9                     u1781:
   836  03B9  2BD4               	goto	l1554
   837  03BA                     u1780:
   838  03BA                     l1546:
   839  03BA  0848               	movf	___fltol@exp1,w
   840  03BB  3A80               	xorlw	128
   841  03BC  3E97               	addlw	151
   842  03BD  1803               	skipnc
   843  03BE  2BC0               	goto	u1791
   844  03BF  2BC1               	goto	u1790
   845  03C0                     u1791:
   846  03C0  2BC2               	goto	l1552
   847  03C1                     u1790:
   848  03C1  2B8D               	goto	l1532
   849  03C2                     l1552:
   850  03C2  3001               	movlw	1
   851  03C3                     u1805:
   852  03C3  1003               	clrc
   853  03C4  0CC1               	rrf	___fltol@f1+3,f
   854  03C5  0CC0               	rrf	___fltol@f1+2,f
   855  03C6  0CBF               	rrf	___fltol@f1+1,f
   856  03C7  0CBE               	rrf	___fltol@f1,f
   857  03C8  3EFF               	addlw	-1
   858  03C9  1D03               	skipz
   859  03CA  2BC3               	goto	u1805
   860  03CB  3001               	movlw	1
   861  03CC  00C2               	movwf	??___fltol
   862  03CD  0842               	movf	??___fltol,w
   863  03CE  07C8               	addwf	___fltol@exp1,f
   864  03CF  1D03               	btfss	3,2
   865  03D0  2BD2               	goto	u1811
   866  03D1  2BD3               	goto	u1810
   867  03D2                     u1811:
   868  03D2  2BC2               	goto	l1552
   869  03D3                     u1810:
   870  03D3  2BEB               	goto	l1562
   871  03D4                     l1554:
   872  03D4  3020               	movlw	32
   873  03D5  0248               	subwf	___fltol@exp1,w
   874  03D6  1C03               	skipc
   875  03D7  2BD9               	goto	u1821
   876  03D8  2BDA               	goto	u1820
   877  03D9                     u1821:
   878  03D9  2BE6               	goto	l437
   879  03DA                     u1820:
   880  03DA  2B8D               	goto	l1532
   881  03DB                     l1560:
   882  03DB  3001               	movlw	1
   883  03DC  00C2               	movwf	??___fltol
   884  03DD                     u1835:
   885  03DD  1003               	clrc
   886  03DE  0DBE               	rlf	___fltol@f1,f
   887  03DF  0DBF               	rlf	___fltol@f1+1,f
   888  03E0  0DC0               	rlf	___fltol@f1+2,f
   889  03E1  0DC1               	rlf	___fltol@f1+3,f
   890  03E2  0BC2               	decfsz	??___fltol,f
   891  03E3  2BDD               	goto	u1835
   892  03E4  3001               	movlw	1
   893  03E5  02C8               	subwf	___fltol@exp1,f
   894  03E6                     l437:
   895  03E6  0848               	movf	___fltol@exp1,w
   896  03E7  1D03               	btfss	3,2
   897  03E8  2BEA               	goto	u1841
   898  03E9  2BEB               	goto	u1840
   899  03EA                     u1841:
   900  03EA  2BDB               	goto	l1560
   901  03EB                     u1840:
   902  03EB                     l1562:
   903  03EB  0847               	movf	___fltol@sign1,w
   904  03EC  1903               	btfsc	3,2
   905  03ED  2BEF               	goto	u1851
   906  03EE  2BF0               	goto	u1850
   907  03EF                     u1851:
   908  03EF  2BFB               	goto	l440
   909  03F0                     u1850:
   910  03F0                     l1564:
   911  03F0  09BE               	comf	___fltol@f1,f
   912  03F1  09BF               	comf	___fltol@f1+1,f
   913  03F2  09C0               	comf	___fltol@f1+2,f
   914  03F3  09C1               	comf	___fltol@f1+3,f
   915  03F4  0ABE               	incf	___fltol@f1,f
   916  03F5  1903               	skipnz
   917  03F6  0ABF               	incf	___fltol@f1+1,f
   918  03F7  1903               	skipnz
   919  03F8  0AC0               	incf	___fltol@f1+2,f
   920  03F9  1903               	skipnz
   921  03FA  0AC1               	incf	___fltol@f1+3,f
   922  03FB                     l440:
   923  03FB                     l430:
   924  03FB  0008               	return
   925  03FC                     __end_of___fltol:
   926                           
   927                           	psect	text3
   928  031D                     __ptext3:	
   929 ;; *************** function _LM75_read *****************
   930 ;; Defined at:
   931 ;;		line 17 in file "./LM75.h"
   932 ;; Parameters:    Size  Location     Type
   933 ;;  regAddress      1    wreg     unsigned char 
   934 ;; Auto vars:     Size  Location     Type
   935 ;;  regAddress      1   29[BANK0 ] unsigned char 
   936 ;;  LSB             2   27[BANK0 ] int 
   937 ;;  MSB             2   25[BANK0 ] int 
   938 ;; Return value:  Size  Location     Type
   939 ;;                  4   19[BANK0 ] float 
   940 ;; Registers used:
   941 ;;		wreg, status,2, status,0, btemp+1, pclath, cstack
   942 ;; Tracked objects:
   943 ;;		On entry : 0/0
   944 ;;		On exit  : 0/0
   945 ;;		Unchanged: 0/0
   946 ;; Data sizes:     COMMON   BANK0   BANK1   BANK3   BANK2
   947 ;;      Params:         0       4       0       0       0
   948 ;;      Locals:         0       5       0       0       0
   949 ;;      Temps:          0       2       0       0       0
   950 ;;      Totals:         0      11       0       0       0
   951 ;;Total ram usage:       11 bytes
   952 ;; Hardware stack levels used:    1
   953 ;; Hardware stack levels required when called:    2
   954 ;; This function calls:
   955 ;;		_I2C_read
   956 ;;		_I2C_restart
   957 ;;		_I2C_start
   958 ;;		_I2C_stop
   959 ;;		_I2C_write
   960 ;;		_toFloat
   961 ;; This function is called by:
   962 ;;		_main
   963 ;; This function uses a non-reentrant model
   964 ;;
   965                           
   966                           
   967                           ;psect for function _LM75_read
   968  031D                     _LM75_read:
   969                           
   970                           ;incstack = 0
   971                           ; Regs used in _LM75_read: [wreg+status,2+status,0+btemp+1+pclath+cstack]
   972                           ;LM75_read@regAddress stored from wreg
   973  031D  1283               	bcf	3,5	;RP0=0, select bank0
   974  031E  1303               	bcf	3,6	;RP1=0, select bank0
   975  031F  00BD               	movwf	LM75_read@regAddress
   976  0320                     l1512:
   977                           
   978                           ;./LM75.h: 17: float LM75_read(char regAddress);./LM75.h: 18: {;./LM75.h: 19:   signed i
      +                          nt MSB,LSB;;./LM75.h: 21:   I2C_start();
   979  0320  120A  118A  21D6  120A  118A  	fcall	_I2C_start
   980  0325                     l1514:
   981                           
   982                           ;./LM75.h: 23:   I2C_write(0x90 + 0);
   983  0325  3090               	movlw	144
   984  0326  120A  118A  21F4  120A  118A  	fcall	_I2C_write
   985  032B                     l1516:
   986                           
   987                           ;./LM75.h: 24:   I2C_write(regAddress);
   988  032B  1283               	bcf	3,5	;RP0=0, select bank0
   989  032C  1303               	bcf	3,6	;RP1=0, select bank0
   990  032D  083D               	movf	LM75_read@regAddress,w
   991  032E  120A  118A  21F4  120A  118A  	fcall	_I2C_write
   992                           
   993                           ;./LM75.h: 25:   I2C_restart();
   994  0333  120A  118A  21EA  120A  118A  	fcall	_I2C_restart
   995  0338                     l1518:
   996                           
   997                           ;./LM75.h: 26:   I2C_write(0x90 + 1);
   998  0338  3091               	movlw	145
   999  0339  120A  118A  21F4  120A  118A  	fcall	_I2C_write
  1000  033E                     l1520:
  1001                           
  1002                           ;./LM75.h: 27:   MSB = I2C_read(0);
  1003  033E  3000               	movlw	0
  1004  033F  120A  118A  2212  120A  118A  	fcall	_I2C_read
  1005  0344  1283               	bcf	3,5	;RP0=0, select bank0
  1006  0345  1303               	bcf	3,6	;RP1=0, select bank0
  1007  0346  00B7               	movwf	??_LM75_read
  1008  0347  01B8               	clrf	??_LM75_read+1
  1009  0348  0837               	movf	??_LM75_read,w
  1010  0349  00B9               	movwf	LM75_read@MSB
  1011  034A  0838               	movf	??_LM75_read+1,w
  1012  034B  00BA               	movwf	LM75_read@MSB+1
  1013  034C                     l1522:
  1014                           
  1015                           ;./LM75.h: 28:   LSB = I2C_read(1);
  1016  034C  3001               	movlw	1
  1017  034D  120A  118A  2212  120A  118A  	fcall	_I2C_read
  1018  0352  1283               	bcf	3,5	;RP0=0, select bank0
  1019  0353  1303               	bcf	3,6	;RP1=0, select bank0
  1020  0354  00B7               	movwf	??_LM75_read
  1021  0355  01B8               	clrf	??_LM75_read+1
  1022  0356  0837               	movf	??_LM75_read,w
  1023  0357  00BB               	movwf	LM75_read@LSB
  1024  0358  0838               	movf	??_LM75_read+1,w
  1025  0359  00BC               	movwf	LM75_read@LSB+1
  1026  035A                     l1524:
  1027                           
  1028                           ;./LM75.h: 30:   I2C_stop();
  1029  035A  120A  118A  21E0  120A  118A  	fcall	_I2C_stop
  1030  035F                     l1526:
  1031                           
  1032                           ;./LM75.h: 32:   return toFloat((MSB << 8) + LSB);
  1033  035F  1283               	bcf	3,5	;RP0=0, select bank0
  1034  0360  1303               	bcf	3,6	;RP1=0, select bank0
  1035  0361  083A               	movf	LM75_read@MSB+1,w
  1036  0362  00B8               	movwf	??_LM75_read+1
  1037  0363  0839               	movf	LM75_read@MSB,w
  1038  0364  00B7               	movwf	??_LM75_read
  1039  0365  0837               	movf	??_LM75_read,w
  1040  0366  00B8               	movwf	??_LM75_read+1
  1041  0367  01B7               	clrf	??_LM75_read
  1042  0368  083B               	movf	LM75_read@LSB,w
  1043  0369  0737               	addwf	??_LM75_read,w
  1044  036A  00A8               	movwf	toFloat@tempr
  1045  036B  083C               	movf	LM75_read@LSB+1,w
  1046  036C  1803               	skipnc
  1047  036D  0A3C               	incf	LM75_read@LSB+1,w
  1048  036E  0738               	addwf	??_LM75_read+1,w
  1049  036F  00A9               	movwf	toFloat@tempr+1
  1050  0370  120A  118A  22C5  120A  118A  	fcall	_toFloat
  1051  0375  1283               	bcf	3,5	;RP0=0, select bank0
  1052  0376  1303               	bcf	3,6	;RP1=0, select bank0
  1053  0377  082B               	movf	?_toFloat+3,w
  1054  0378  00B6               	movwf	?_LM75_read+3
  1055  0379  082A               	movf	?_toFloat+2,w
  1056  037A  00B5               	movwf	?_LM75_read+2
  1057  037B  0829               	movf	?_toFloat+1,w
  1058  037C  00B4               	movwf	?_LM75_read+1
  1059  037D  0828               	movf	?_toFloat,w
  1060  037E  00B3               	movwf	?_LM75_read
  1061  037F                     l90:
  1062  037F  0008               	return
  1063  0380                     __end_of_LM75_read:
  1064                           
  1065                           	psect	text4
  1066  02C5                     __ptext4:	
  1067 ;; *************** function _toFloat *****************
  1068 ;; Defined at:
  1069 ;;		line 73 in file "./LM75.h"
  1070 ;; Parameters:    Size  Location     Type
  1071 ;;  tempr           2    8[BANK0 ] int 
  1072 ;; Auto vars:     Size  Location     Type
  1073 ;;  result          4   15[BANK0 ] float 
  1074 ;;  isfraction      1   14[BANK0 ] unsigned char 
  1075 ;; Return value:  Size  Location     Type
  1076 ;;                  4    8[BANK0 ] float 
  1077 ;; Registers used:
  1078 ;;		wreg, status,2, status,0, btemp+1, pclath, cstack
  1079 ;; Tracked objects:
  1080 ;;		On entry : 0/0
  1081 ;;		On exit  : 0/0
  1082 ;;		Unchanged: 0/0
  1083 ;; Data sizes:     COMMON   BANK0   BANK1   BANK3   BANK2
  1084 ;;      Params:         0       4       0       0       0
  1085 ;;      Locals:         0       5       0       0       0
  1086 ;;      Temps:          0       2       0       0       0
  1087 ;;      Totals:         0      11       0       0       0
  1088 ;;Total ram usage:       11 bytes
  1089 ;; Hardware stack levels used:    1
  1090 ;; Hardware stack levels required when called:    1
  1091 ;; This function calls:
  1092 ;;		___fladd
  1093 ;;		___xxtofl
  1094 ;; This function is called by:
  1095 ;;		_LM75_read
  1096 ;; This function uses a non-reentrant model
  1097 ;;
  1098                           
  1099                           
  1100                           ;psect for function _toFloat
  1101  02C5                     _toFloat:
  1102  02C5                     l1498:	
  1103                           ;incstack = 0
  1104                           ; Regs used in _toFloat: [wreg+status,2+status,0+btemp+1+pclath+cstack]
  1105                           
  1106                           
  1107                           ;./LM75.h: 73: float toFloat(signed int tempr);./LM75.h: 74: {;./LM75.h: 75:   float res
      +                          ult = (float)(tempr>>8);
  1108  02C5  1283               	bcf	3,5	;RP0=0, select bank0
  1109  02C6  1303               	bcf	3,6	;RP1=0, select bank0
  1110  02C7  0829               	movf	toFloat@tempr+1,w
  1111  02C8  00AD               	movwf	??_toFloat+1
  1112  02C9  0828               	movf	toFloat@tempr,w
  1113  02CA  00AC               	movwf	??_toFloat
  1114  02CB  3008               	movlw	8
  1115  02CC  00FF               	movwf	btemp+1
  1116  02CD                     u1745:
  1117  02CD  0D2D               	rlf	??_toFloat+1,w
  1118  02CE  0CAD               	rrf	??_toFloat+1,f
  1119  02CF  0CAC               	rrf	??_toFloat,f
  1120  02D0  0BFF               	decfsz	btemp+1,f
  1121  02D1  2ACD               	goto	u1745
  1122  02D2  082C               	movf	??_toFloat,w
  1123  02D3  00F0               	movwf	___xxtofl@val
  1124  02D4  082D               	movf	??_toFloat+1,w
  1125  02D5  00F1               	movwf	___xxtofl@val+1
  1126  02D6  3000               	movlw	0
  1127  02D7  1BF1               	btfsc	___xxtofl@val+1,7
  1128  02D8  30FF               	movlw	255
  1129  02D9  00F2               	movwf	___xxtofl@val+2
  1130  02DA  00F3               	movwf	___xxtofl@val+3
  1131  02DB  3001               	movlw	1
  1132  02DC  120A  118A  2499  120A  118A  	fcall	___xxtofl
  1133  02E1  0873               	movf	?___xxtofl+3,w
  1134  02E2  1283               	bcf	3,5	;RP0=0, select bank0
  1135  02E3  1303               	bcf	3,6	;RP1=0, select bank0
  1136  02E4  00B2               	movwf	toFloat@result+3
  1137  02E5  0872               	movf	?___xxtofl+2,w
  1138  02E6  00B1               	movwf	toFloat@result+2
  1139  02E7  0871               	movf	?___xxtofl+1,w
  1140  02E8  00B0               	movwf	toFloat@result+1
  1141  02E9  0870               	movf	?___xxtofl,w
  1142  02EA  00AF               	movwf	toFloat@result
  1143  02EB                     l1500:
  1144                           
  1145                           ;./LM75.h: 76:   char isfraction = tempr & 0x0080;
  1146  02EB  0828               	movf	toFloat@tempr,w
  1147  02EC  3980               	andlw	128
  1148  02ED  00AC               	movwf	??_toFloat
  1149  02EE  082C               	movf	??_toFloat,w
  1150  02EF  00AE               	movwf	toFloat@isfraction
  1151  02F0                     l1502:
  1152                           
  1153                           ;./LM75.h: 78:   if(isfraction)
  1154  02F0  082E               	movf	toFloat@isfraction,w
  1155  02F1  1903               	btfsc	3,2
  1156  02F2  2AF4               	goto	u1751
  1157  02F3  2AF5               	goto	u1750
  1158  02F4                     u1751:
  1159  02F4  2B14               	goto	l1506
  1160  02F5                     u1750:
  1161  02F5                     l1504:
  1162                           
  1163                           ;./LM75.h: 79:   {;./LM75.h: 80:     result = result + 0.5;
  1164  02F5  303F               	movlw	63
  1165  02F6  00F3               	movwf	___fladd@b+3
  1166  02F7  3000               	movlw	0
  1167  02F8  00F2               	movwf	___fladd@b+2
  1168  02F9  3000               	movlw	0
  1169  02FA  00F1               	movwf	___fladd@b+1
  1170  02FB  3000               	movlw	0
  1171  02FC  00F0               	movwf	___fladd@b
  1172  02FD  0832               	movf	toFloat@result+3,w
  1173  02FE  00F7               	movwf	___fladd@a+3
  1174  02FF  0831               	movf	toFloat@result+2,w
  1175  0300  00F6               	movwf	___fladd@a+2
  1176  0301  0830               	movf	toFloat@result+1,w
  1177  0302  00F5               	movwf	___fladd@a+1
  1178  0303  082F               	movf	toFloat@result,w
  1179  0304  00F4               	movwf	___fladd@a
  1180  0305  120A  118A  2553  120A  118A  	fcall	___fladd
  1181  030A  0873               	movf	?___fladd+3,w
  1182  030B  1283               	bcf	3,5	;RP0=0, select bank0
  1183  030C  1303               	bcf	3,6	;RP1=0, select bank0
  1184  030D  00B2               	movwf	toFloat@result+3
  1185  030E  0872               	movf	?___fladd+2,w
  1186  030F  00B1               	movwf	toFloat@result+2
  1187  0310  0871               	movf	?___fladd+1,w
  1188  0311  00B0               	movwf	toFloat@result+1
  1189  0312  0870               	movf	?___fladd,w
  1190  0313  00AF               	movwf	toFloat@result
  1191  0314                     l1506:
  1192                           
  1193                           ;./LM75.h: 83:   return (result);
  1194  0314  0832               	movf	toFloat@result+3,w
  1195  0315  00AB               	movwf	?_toFloat+3
  1196  0316  0831               	movf	toFloat@result+2,w
  1197  0317  00AA               	movwf	?_toFloat+2
  1198  0318  0830               	movf	toFloat@result+1,w
  1199  0319  00A9               	movwf	?_toFloat+1
  1200  031A  082F               	movf	toFloat@result,w
  1201  031B  00A8               	movwf	?_toFloat
  1202  031C                     l103:
  1203  031C  0008               	return
  1204  031D                     __end_of_toFloat:
  1205                           
  1206                           	psect	text5
  1207  0499                     __ptext5:	
  1208 ;; *************** function ___xxtofl *****************
  1209 ;; Defined at:
  1210 ;;		line 10 in file "C:\Program Files\Microchip\xc8\v2.31\pic\sources\c90\common\xxtofl.c"
  1211 ;; Parameters:    Size  Location     Type
  1212 ;;  sign            1    wreg     unsigned char 
  1213 ;;  val             4    0[COMMON] long 
  1214 ;; Auto vars:     Size  Location     Type
  1215 ;;  sign            1    8[COMMON] unsigned char 
  1216 ;;  arg             4   10[COMMON] unsigned long 
  1217 ;;  exp             1    9[COMMON] unsigned char 
  1218 ;; Return value:  Size  Location     Type
  1219 ;;                  4    0[COMMON] unsigned char 
  1220 ;; Registers used:
  1221 ;;		wreg, status,2, status,0
  1222 ;; Tracked objects:
  1223 ;;		On entry : 0/0
  1224 ;;		On exit  : 0/0
  1225 ;;		Unchanged: 0/0
  1226 ;; Data sizes:     COMMON   BANK0   BANK1   BANK3   BANK2
  1227 ;;      Params:         4       0       0       0       0
  1228 ;;      Locals:         6       0       0       0       0
  1229 ;;      Temps:          4       0       0       0       0
  1230 ;;      Totals:        14       0       0       0       0
  1231 ;;Total ram usage:       14 bytes
  1232 ;; Hardware stack levels used:    1
  1233 ;; This function calls:
  1234 ;;		Nothing
  1235 ;; This function is called by:
  1236 ;;		_toFloat
  1237 ;; This function uses a non-reentrant model
  1238 ;;
  1239                           
  1240                           
  1241                           ;psect for function ___xxtofl
  1242  0499                     ___xxtofl:
  1243                           
  1244                           ;incstack = 0
  1245                           ; Regs used in ___xxtofl: [wreg+status,2+status,0]
  1246                           ;___xxtofl@sign stored from wreg
  1247  0499  00F8               	movwf	___xxtofl@sign
  1248  049A                     l1426:
  1249  049A  0878               	movf	___xxtofl@sign,w
  1250  049B  1903               	btfsc	3,2
  1251  049C  2C9E               	goto	u1581
  1252  049D  2C9F               	goto	u1580
  1253  049E                     u1581:
  1254  049E  2CB3               	goto	l1432
  1255  049F                     u1580:
  1256  049F                     l1428:
  1257  049F  1FF3               	btfss	___xxtofl@val+3,7
  1258  04A0  2CA2               	goto	u1591
  1259  04A1  2CA3               	goto	u1590
  1260  04A2                     u1591:
  1261  04A2  2CB3               	goto	l1432
  1262  04A3                     u1590:
  1263  04A3                     l1430:
  1264  04A3  0970               	comf	___xxtofl@val,w
  1265  04A4  00FA               	movwf	___xxtofl@arg
  1266  04A5  0971               	comf	___xxtofl@val+1,w
  1267  04A6  00FB               	movwf	___xxtofl@arg+1
  1268  04A7  0972               	comf	___xxtofl@val+2,w
  1269  04A8  00FC               	movwf	___xxtofl@arg+2
  1270  04A9  0973               	comf	___xxtofl@val+3,w
  1271  04AA  00FD               	movwf	___xxtofl@arg+3
  1272  04AB  0AFA               	incf	___xxtofl@arg,f
  1273  04AC  1903               	skipnz
  1274  04AD  0AFB               	incf	___xxtofl@arg+1,f
  1275  04AE  1903               	skipnz
  1276  04AF  0AFC               	incf	___xxtofl@arg+2,f
  1277  04B0  1903               	skipnz
  1278  04B1  0AFD               	incf	___xxtofl@arg+3,f
  1279  04B2  2CBB               	goto	l677
  1280  04B3                     l1432:
  1281  04B3  0873               	movf	___xxtofl@val+3,w
  1282  04B4  00FD               	movwf	___xxtofl@arg+3
  1283  04B5  0872               	movf	___xxtofl@val+2,w
  1284  04B6  00FC               	movwf	___xxtofl@arg+2
  1285  04B7  0871               	movf	___xxtofl@val+1,w
  1286  04B8  00FB               	movwf	___xxtofl@arg+1
  1287  04B9  0870               	movf	___xxtofl@val,w
  1288  04BA  00FA               	movwf	___xxtofl@arg
  1289  04BB                     l677:
  1290  04BB  0873               	movf	___xxtofl@val+3,w
  1291  04BC  0472               	iorwf	___xxtofl@val+2,w
  1292  04BD  0471               	iorwf	___xxtofl@val+1,w
  1293  04BE  0470               	iorwf	___xxtofl@val,w
  1294  04BF  1D03               	skipz
  1295  04C0  2CC2               	goto	u1601
  1296  04C1  2CC3               	goto	u1600
  1297  04C2                     u1601:
  1298  04C2  2CCC               	goto	l1438
  1299  04C3                     u1600:
  1300  04C3                     l1434:
  1301  04C3  3000               	movlw	0
  1302  04C4  00F3               	movwf	?___xxtofl+3
  1303  04C5  3000               	movlw	0
  1304  04C6  00F2               	movwf	?___xxtofl+2
  1305  04C7  3000               	movlw	0
  1306  04C8  00F1               	movwf	?___xxtofl+1
  1307  04C9  3000               	movlw	0
  1308  04CA  00F0               	movwf	?___xxtofl
  1309  04CB  2D52               	goto	l679
  1310  04CC                     l1438:
  1311  04CC  3096               	movlw	150
  1312  04CD  00F4               	movwf	??___xxtofl
  1313  04CE  0874               	movf	??___xxtofl,w
  1314  04CF  00F9               	movwf	___xxtofl@exp
  1315  04D0  2CDE               	goto	l1442
  1316  04D1                     l1440:
  1317  04D1  3001               	movlw	1
  1318  04D2  00F4               	movwf	??___xxtofl
  1319  04D3  0874               	movf	??___xxtofl,w
  1320  04D4  07F9               	addwf	___xxtofl@exp,f
  1321  04D5  3001               	movlw	1
  1322  04D6                     u1615:
  1323  04D6  1003               	clrc
  1324  04D7  0CFD               	rrf	___xxtofl@arg+3,f
  1325  04D8  0CFC               	rrf	___xxtofl@arg+2,f
  1326  04D9  0CFB               	rrf	___xxtofl@arg+1,f
  1327  04DA  0CFA               	rrf	___xxtofl@arg,f
  1328  04DB  3EFF               	addlw	-1
  1329  04DC  1D03               	skipz
  1330  04DD  2CD6               	goto	u1615
  1331  04DE                     l1442:
  1332  04DE  30FE               	movlw	254
  1333  04DF  057D               	andwf	___xxtofl@arg+3,w
  1334  04E0  1D03               	btfss	3,2
  1335  04E1  2CE3               	goto	u1621
  1336  04E2  2CE4               	goto	u1620
  1337  04E3                     u1621:
  1338  04E3  2CD1               	goto	l1440
  1339  04E4                     u1620:
  1340  04E4  2D00               	goto	l683
  1341  04E5                     l1444:
  1342  04E5  3001               	movlw	1
  1343  04E6  00F4               	movwf	??___xxtofl
  1344  04E7  0874               	movf	??___xxtofl,w
  1345  04E8  07F9               	addwf	___xxtofl@exp,f
  1346  04E9                     l1446:
  1347  04E9  3001               	movlw	1
  1348  04EA  07FA               	addwf	___xxtofl@arg,f
  1349  04EB  3000               	movlw	0
  1350  04EC  1803               	skipnc
  1351  04ED  3001               	movlw	1
  1352  04EE  07FB               	addwf	___xxtofl@arg+1,f
  1353  04EF  3000               	movlw	0
  1354  04F0  1803               	skipnc
  1355  04F1  3001               	movlw	1
  1356  04F2  07FC               	addwf	___xxtofl@arg+2,f
  1357  04F3  3000               	movlw	0
  1358  04F4  1803               	skipnc
  1359  04F5  3001               	movlw	1
  1360  04F6  07FD               	addwf	___xxtofl@arg+3,f
  1361  04F7                     l1448:
  1362  04F7  3001               	movlw	1
  1363  04F8                     u1635:
  1364  04F8  1003               	clrc
  1365  04F9  0CFD               	rrf	___xxtofl@arg+3,f
  1366  04FA  0CFC               	rrf	___xxtofl@arg+2,f
  1367  04FB  0CFB               	rrf	___xxtofl@arg+1,f
  1368  04FC  0CFA               	rrf	___xxtofl@arg,f
  1369  04FD  3EFF               	addlw	-1
  1370  04FE  1D03               	skipz
  1371  04FF  2CF8               	goto	u1635
  1372  0500                     l683:
  1373  0500  30FF               	movlw	255
  1374  0501  057D               	andwf	___xxtofl@arg+3,w
  1375  0502  1D03               	btfss	3,2
  1376  0503  2D05               	goto	u1641
  1377  0504  2D06               	goto	u1640
  1378  0505                     u1641:
  1379  0505  2CE5               	goto	l1444
  1380  0506                     u1640:
  1381  0506  2D12               	goto	l1452
  1382  0507                     l1450:
  1383  0507  3001               	movlw	1
  1384  0508  02F9               	subwf	___xxtofl@exp,f
  1385  0509  3001               	movlw	1
  1386  050A  00F4               	movwf	??___xxtofl
  1387  050B                     u1655:
  1388  050B  1003               	clrc
  1389  050C  0DFA               	rlf	___xxtofl@arg,f
  1390  050D  0DFB               	rlf	___xxtofl@arg+1,f
  1391  050E  0DFC               	rlf	___xxtofl@arg+2,f
  1392  050F  0DFD               	rlf	___xxtofl@arg+3,f
  1393  0510  0BF4               	decfsz	??___xxtofl,f
  1394  0511  2D0B               	goto	u1655
  1395  0512                     l1452:
  1396  0512  1BFC               	btfsc	___xxtofl@arg+2,7
  1397  0513  2D15               	goto	u1661
  1398  0514  2D16               	goto	u1660
  1399  0515                     u1661:
  1400  0515  2D1C               	goto	l690
  1401  0516                     u1660:
  1402  0516                     l1454:
  1403  0516  3002               	movlw	2
  1404  0517  0279               	subwf	___xxtofl@exp,w
  1405  0518  1803               	skipnc
  1406  0519  2D1B               	goto	u1671
  1407  051A  2D1C               	goto	u1670
  1408  051B                     u1671:
  1409  051B  2D07               	goto	l1450
  1410  051C                     u1670:
  1411  051C                     l690:
  1412  051C  1879               	btfsc	___xxtofl@exp,0
  1413  051D  2D1F               	goto	u1681
  1414  051E  2D20               	goto	u1680
  1415  051F                     u1681:
  1416  051F  2D28               	goto	l691
  1417  0520                     u1680:
  1418  0520                     l1456:
  1419  0520  30FF               	movlw	255
  1420  0521  05FA               	andwf	___xxtofl@arg,f
  1421  0522  30FF               	movlw	255
  1422  0523  05FB               	andwf	___xxtofl@arg+1,f
  1423  0524  307F               	movlw	127
  1424  0525  05FC               	andwf	___xxtofl@arg+2,f
  1425  0526  30FF               	movlw	255
  1426  0527  05FD               	andwf	___xxtofl@arg+3,f
  1427  0528                     l691:
  1428  0528  1003               	clrc
  1429  0529  0CF9               	rrf	___xxtofl@exp,f
  1430  052A                     l1458:
  1431  052A  0879               	movf	___xxtofl@exp,w
  1432  052B  00F4               	movwf	??___xxtofl
  1433  052C  01F5               	clrf	??___xxtofl+1
  1434  052D  01F6               	clrf	??___xxtofl+2
  1435  052E  01F7               	clrf	??___xxtofl+3
  1436  052F  3018               	movlw	24
  1437  0530                     u1695:
  1438  0530  1003               	clrc
  1439  0531  0DF4               	rlf	??___xxtofl,f
  1440  0532  0DF5               	rlf	??___xxtofl+1,f
  1441  0533  0DF6               	rlf	??___xxtofl+2,f
  1442  0534  0DF7               	rlf	??___xxtofl+3,f
  1443  0535                     u1690:
  1444  0535  3EFF               	addlw	-1
  1445  0536  1D03               	skipz
  1446  0537  2D30               	goto	u1695
  1447  0538  0874               	movf	??___xxtofl,w
  1448  0539  04FA               	iorwf	___xxtofl@arg,f
  1449  053A  0875               	movf	??___xxtofl+1,w
  1450  053B  04FB               	iorwf	___xxtofl@arg+1,f
  1451  053C  0876               	movf	??___xxtofl+2,w
  1452  053D  04FC               	iorwf	___xxtofl@arg+2,f
  1453  053E  0877               	movf	??___xxtofl+3,w
  1454  053F  04FD               	iorwf	___xxtofl@arg+3,f
  1455  0540                     l1460:
  1456  0540  0878               	movf	___xxtofl@sign,w
  1457  0541  1903               	btfsc	3,2
  1458  0542  2D44               	goto	u1701
  1459  0543  2D45               	goto	u1700
  1460  0544                     u1701:
  1461  0544  2D4A               	goto	l1466
  1462  0545                     u1700:
  1463  0545                     l1462:
  1464  0545  1FF3               	btfss	___xxtofl@val+3,7
  1465  0546  2D48               	goto	u1711
  1466  0547  2D49               	goto	u1710
  1467  0548                     u1711:
  1468  0548  2D4A               	goto	l1466
  1469  0549                     u1710:
  1470  0549                     l1464:
  1471  0549  17FD               	bsf	___xxtofl@arg+3,7
  1472  054A                     l1466:
  1473  054A  087D               	movf	___xxtofl@arg+3,w
  1474  054B  00F3               	movwf	?___xxtofl+3
  1475  054C  087C               	movf	___xxtofl@arg+2,w
  1476  054D  00F2               	movwf	?___xxtofl+2
  1477  054E  087B               	movf	___xxtofl@arg+1,w
  1478  054F  00F1               	movwf	?___xxtofl+1
  1479  0550  087A               	movf	___xxtofl@arg,w
  1480  0551  00F0               	movwf	?___xxtofl
  1481  0552                     l679:
  1482  0552  0008               	return
  1483  0553                     __end_of___xxtofl:
  1484                           
  1485                           	psect	text6
  1486  0553                     __ptext6:	
  1487 ;; *************** function ___fladd *****************
  1488 ;; Defined at:
  1489 ;;		line 10 in file "C:\Program Files\Microchip\xc8\v2.31\pic\sources\c90\common\sprcadd.c"
  1490 ;; Parameters:    Size  Location     Type
  1491 ;;  b               4    0[COMMON] unsigned char 
  1492 ;;  a               4    4[COMMON] unsigned char 
  1493 ;; Auto vars:     Size  Location     Type
  1494 ;;  grs             1   11[COMMON] unsigned char 
  1495 ;;  bexp            1   10[COMMON] unsigned char 
  1496 ;;  aexp            1    9[COMMON] unsigned char 
  1497 ;;  signs           1    8[COMMON] unsigned char 
  1498 ;; Return value:  Size  Location     Type
  1499 ;;                  4    0[COMMON] unsigned char 
  1500 ;; Registers used:
  1501 ;;		wreg, status,2, status,0, btemp+1
  1502 ;; Tracked objects:
  1503 ;;		On entry : 0/0
  1504 ;;		On exit  : 0/0
  1505 ;;		Unchanged: 0/0
  1506 ;; Data sizes:     COMMON   BANK0   BANK1   BANK3   BANK2
  1507 ;;      Params:         8       0       0       0       0
  1508 ;;      Locals:         4       0       0       0       0
  1509 ;;      Temps:          0       8       0       0       0
  1510 ;;      Totals:        12       8       0       0       0
  1511 ;;Total ram usage:       20 bytes
  1512 ;; Hardware stack levels used:    1
  1513 ;; This function calls:
  1514 ;;		Nothing
  1515 ;; This function is called by:
  1516 ;;		_toFloat
  1517 ;; This function uses a non-reentrant model
  1518 ;;
  1519                           
  1520                           
  1521                           ;psect for function ___fladd
  1522  0553                     ___fladd:
  1523  0553                     l1232:	
  1524                           ;incstack = 0
  1525                           ; Regs used in ___fladd: [wreg+status,2+status,0+btemp+1]
  1526                           
  1527  0553  0873               	movf	___fladd@b+3,w
  1528  0554  3980               	andlw	128
  1529  0555  1283               	bcf	3,5	;RP0=0, select bank0
  1530  0556  1303               	bcf	3,6	;RP1=0, select bank0
  1531  0557  00A0               	movwf	??___fladd
  1532  0558  0820               	movf	??___fladd,w
  1533  0559  00F8               	movwf	___fladd@signs
  1534  055A                     l1234:
  1535  055A  0873               	movf	___fladd@b+3,w
  1536  055B  00A0               	movwf	??___fladd
  1537  055C  0720               	addwf	??___fladd,w
  1538  055D  00A1               	movwf	??___fladd+1
  1539  055E  0821               	movf	??___fladd+1,w
  1540  055F  00FA               	movwf	___fladd@bexp
  1541  0560                     l1236:
  1542  0560  1FF2               	btfss	___fladd@b+2,7
  1543  0561  2D63               	goto	u1121
  1544  0562  2D64               	goto	u1120
  1545  0563                     u1121:
  1546  0563  2D65               	goto	l1240
  1547  0564                     u1120:
  1548  0564                     l1238:
  1549  0564  147A               	bsf	___fladd@bexp,0
  1550  0565                     l1240:
  1551  0565  087A               	movf	___fladd@bexp,w
  1552  0566  1903               	btfsc	3,2
  1553  0567  2D69               	goto	u1131
  1554  0568  2D6A               	goto	u1130
  1555  0569                     u1131:
  1556  0569  2D7A               	goto	l1250
  1557  056A                     u1130:
  1558  056A                     l1242:
  1559  056A  0A7A               	incf	___fladd@bexp,w
  1560  056B  1D03               	btfss	3,2
  1561  056C  2D6E               	goto	u1141
  1562  056D  2D6F               	goto	u1140
  1563  056E                     u1141:
  1564  056E  2D77               	goto	l1246
  1565  056F                     u1140:
  1566  056F                     l1244:
  1567  056F  3000               	movlw	0
  1568  0570  00F3               	movwf	___fladd@b+3
  1569  0571  3000               	movlw	0
  1570  0572  00F2               	movwf	___fladd@b+2
  1571  0573  3000               	movlw	0
  1572  0574  00F1               	movwf	___fladd@b+1
  1573  0575  3000               	movlw	0
  1574  0576  00F0               	movwf	___fladd@b
  1575  0577                     l1246:
  1576  0577  17F2               	bsf	___fladd@b+2,7
  1577  0578                     l1248:
  1578  0578  01F3               	clrf	___fladd@b+3
  1579  0579  2D82               	goto	l1252
  1580  057A                     l1250:
  1581  057A  3000               	movlw	0
  1582  057B  00F3               	movwf	___fladd@b+3
  1583  057C  3000               	movlw	0
  1584  057D  00F2               	movwf	___fladd@b+2
  1585  057E  3000               	movlw	0
  1586  057F  00F1               	movwf	___fladd@b+1
  1587  0580  3000               	movlw	0
  1588  0581  00F0               	movwf	___fladd@b
  1589  0582                     l1252:
  1590  0582  0877               	movf	___fladd@a+3,w
  1591  0583  3980               	andlw	128
  1592  0584  00A0               	movwf	??___fladd
  1593  0585  0820               	movf	??___fladd,w
  1594  0586  00F9               	movwf	___fladd@aexp
  1595  0587                     l1254:
  1596  0587  0879               	movf	___fladd@aexp,w
  1597  0588  0678               	xorwf	___fladd@signs,w
  1598  0589  1903               	skipnz
  1599  058A  2D8C               	goto	u1151
  1600  058B  2D8D               	goto	u1150
  1601  058C                     u1151:
  1602  058C  2D8E               	goto	l1258
  1603  058D                     u1150:
  1604  058D                     l1256:
  1605  058D  1778               	bsf	___fladd@signs,6
  1606  058E                     l1258:
  1607  058E  0877               	movf	___fladd@a+3,w
  1608  058F  00A0               	movwf	??___fladd
  1609  0590  0720               	addwf	??___fladd,w
  1610  0591  00A1               	movwf	??___fladd+1
  1611  0592  0821               	movf	??___fladd+1,w
  1612  0593  00F9               	movwf	___fladd@aexp
  1613  0594                     l1260:
  1614  0594  1FF6               	btfss	___fladd@a+2,7
  1615  0595  2D97               	goto	u1161
  1616  0596  2D98               	goto	u1160
  1617  0597                     u1161:
  1618  0597  2D99               	goto	l1264
  1619  0598                     u1160:
  1620  0598                     l1262:
  1621  0598  1479               	bsf	___fladd@aexp,0
  1622  0599                     l1264:
  1623  0599  0879               	movf	___fladd@aexp,w
  1624  059A  1903               	btfsc	3,2
  1625  059B  2D9D               	goto	u1171
  1626  059C  2D9E               	goto	u1170
  1627  059D                     u1171:
  1628  059D  2DAE               	goto	l1274
  1629  059E                     u1170:
  1630  059E                     l1266:
  1631  059E  0A79               	incf	___fladd@aexp,w
  1632  059F  1D03               	btfss	3,2
  1633  05A0  2DA2               	goto	u1181
  1634  05A1  2DA3               	goto	u1180
  1635  05A2                     u1181:
  1636  05A2  2DAB               	goto	l1270
  1637  05A3                     u1180:
  1638  05A3                     l1268:
  1639  05A3  3000               	movlw	0
  1640  05A4  00F7               	movwf	___fladd@a+3
  1641  05A5  3000               	movlw	0
  1642  05A6  00F6               	movwf	___fladd@a+2
  1643  05A7  3000               	movlw	0
  1644  05A8  00F5               	movwf	___fladd@a+1
  1645  05A9  3000               	movlw	0
  1646  05AA  00F4               	movwf	___fladd@a
  1647  05AB                     l1270:
  1648  05AB  17F6               	bsf	___fladd@a+2,7
  1649  05AC                     l1272:
  1650  05AC  01F7               	clrf	___fladd@a+3
  1651  05AD  2DB6               	goto	l537
  1652  05AE                     l1274:
  1653  05AE  3000               	movlw	0
  1654  05AF  00F7               	movwf	___fladd@a+3
  1655  05B0  3000               	movlw	0
  1656  05B1  00F6               	movwf	___fladd@a+2
  1657  05B2  3000               	movlw	0
  1658  05B3  00F5               	movwf	___fladd@a+1
  1659  05B4  3000               	movlw	0
  1660  05B5  00F4               	movwf	___fladd@a
  1661  05B6                     l537:
  1662  05B6  087A               	movf	___fladd@bexp,w
  1663  05B7  0279               	subwf	___fladd@aexp,w
  1664  05B8  1803               	skipnc
  1665  05B9  2DBB               	goto	u1191
  1666  05BA  2DBC               	goto	u1190
  1667  05BB                     u1191:
  1668  05BB  2E00               	goto	l1310
  1669  05BC                     u1190:
  1670  05BC                     l1276:
  1671  05BC  1F78               	btfss	___fladd@signs,6
  1672  05BD  2DBF               	goto	u1201
  1673  05BE  2DC0               	goto	u1200
  1674  05BF                     u1201:
  1675  05BF  2DC4               	goto	l1280
  1676  05C0                     u1200:
  1677  05C0                     l1278:
  1678  05C0  3080               	movlw	128
  1679  05C1  00A0               	movwf	??___fladd
  1680  05C2  0820               	movf	??___fladd,w
  1681  05C3  06F8               	xorwf	___fladd@signs,f
  1682  05C4                     l1280:
  1683  05C4  087A               	movf	___fladd@bexp,w
  1684  05C5  00A0               	movwf	??___fladd
  1685  05C6  0820               	movf	??___fladd,w
  1686  05C7  00FB               	movwf	___fladd@grs
  1687  05C8                     l1282:
  1688  05C8  0879               	movf	___fladd@aexp,w
  1689  05C9  00A0               	movwf	??___fladd
  1690  05CA  0820               	movf	??___fladd,w
  1691  05CB  00FA               	movwf	___fladd@bexp
  1692  05CC                     l1284:
  1693  05CC  087B               	movf	___fladd@grs,w
  1694  05CD  00A0               	movwf	??___fladd
  1695  05CE  0820               	movf	??___fladd,w
  1696  05CF  00F9               	movwf	___fladd@aexp
  1697  05D0                     l1286:
  1698  05D0  0870               	movf	___fladd@b,w
  1699  05D1  00A0               	movwf	??___fladd
  1700  05D2  0820               	movf	??___fladd,w
  1701  05D3  00FB               	movwf	___fladd@grs
  1702  05D4                     l1288:
  1703  05D4  0874               	movf	___fladd@a,w
  1704  05D5  00A0               	movwf	??___fladd
  1705  05D6  0820               	movf	??___fladd,w
  1706  05D7  00F0               	movwf	___fladd@b
  1707  05D8                     l1290:
  1708  05D8  087B               	movf	___fladd@grs,w
  1709  05D9  00A0               	movwf	??___fladd
  1710  05DA  0820               	movf	??___fladd,w
  1711  05DB  00F4               	movwf	___fladd@a
  1712  05DC                     l1292:
  1713  05DC  0871               	movf	___fladd@b+1,w
  1714  05DD  00A0               	movwf	??___fladd
  1715  05DE  0820               	movf	??___fladd,w
  1716  05DF  00FB               	movwf	___fladd@grs
  1717  05E0                     l1294:
  1718  05E0  0875               	movf	___fladd@a+1,w
  1719  05E1  00A0               	movwf	??___fladd
  1720  05E2  0820               	movf	??___fladd,w
  1721  05E3  00F1               	movwf	___fladd@b+1
  1722  05E4                     l1296:
  1723  05E4  087B               	movf	___fladd@grs,w
  1724  05E5  00A0               	movwf	??___fladd
  1725  05E6  0820               	movf	??___fladd,w
  1726  05E7  00F5               	movwf	___fladd@a+1
  1727  05E8                     l1298:
  1728  05E8  0872               	movf	___fladd@b+2,w
  1729  05E9  00A0               	movwf	??___fladd
  1730  05EA  0820               	movf	??___fladd,w
  1731  05EB  00FB               	movwf	___fladd@grs
  1732  05EC                     l1300:
  1733  05EC  0876               	movf	___fladd@a+2,w
  1734  05ED  00A0               	movwf	??___fladd
  1735  05EE  0820               	movf	??___fladd,w
  1736  05EF  00F2               	movwf	___fladd@b+2
  1737  05F0                     l1302:
  1738  05F0  087B               	movf	___fladd@grs,w
  1739  05F1  00A0               	movwf	??___fladd
  1740  05F2  0820               	movf	??___fladd,w
  1741  05F3  00F6               	movwf	___fladd@a+2
  1742  05F4                     l1304:
  1743  05F4  0873               	movf	___fladd@b+3,w
  1744  05F5  00A0               	movwf	??___fladd
  1745  05F6  0820               	movf	??___fladd,w
  1746  05F7  00FB               	movwf	___fladd@grs
  1747  05F8                     l1306:
  1748  05F8  0877               	movf	___fladd@a+3,w
  1749  05F9  00A0               	movwf	??___fladd
  1750  05FA  0820               	movf	??___fladd,w
  1751  05FB  00F3               	movwf	___fladd@b+3
  1752  05FC                     l1308:
  1753  05FC  087B               	movf	___fladd@grs,w
  1754  05FD  00A0               	movwf	??___fladd
  1755  05FE  0820               	movf	??___fladd,w
  1756  05FF  00F7               	movwf	___fladd@a+3
  1757  0600                     l1310:
  1758  0600  01FB               	clrf	___fladd@grs
  1759  0601                     l1312:
  1760  0601  0879               	movf	___fladd@aexp,w
  1761  0602  00A0               	movwf	??___fladd
  1762  0603  01A1               	clrf	??___fladd+1
  1763  0604  0821               	movf	??___fladd+1,w
  1764  0605  00A3               	movwf	??___fladd+3
  1765  0606  087A               	movf	___fladd@bexp,w
  1766  0607  0220               	subwf	??___fladd,w
  1767  0608  00A2               	movwf	??___fladd+2
  1768  0609  1C03               	skipc
  1769  060A  03A3               	decf	??___fladd+3,f
  1770  060B  0823               	movf	??___fladd+3,w
  1771  060C  3A80               	xorlw	128
  1772  060D  00FF               	movwf	btemp+1
  1773  060E  3080               	movlw	128
  1774  060F  027F               	subwf	btemp+1,w
  1775  0610  1D03               	skipz
  1776  0611  2E14               	goto	u1215
  1777  0612  301A               	movlw	26
  1778  0613  0222               	subwf	??___fladd+2,w
  1779  0614                     u1215:
  1780  0614  1C03               	skipc
  1781  0615  2E17               	goto	u1211
  1782  0616  2E18               	goto	u1210
  1783  0617                     u1211:
  1784  0617  2E59               	goto	l1328
  1785  0618                     u1210:
  1786  0618                     l1314:
  1787  0618  0873               	movf	___fladd@b+3,w
  1788  0619  0472               	iorwf	___fladd@b+2,w
  1789  061A  0471               	iorwf	___fladd@b+1,w
  1790  061B  0470               	iorwf	___fladd@b,w
  1791  061C  1D03               	skipz
  1792  061D  2E1F               	goto	u1221
  1793  061E  2E21               	goto	u1220
  1794  061F                     u1221:
  1795  061F  3001               	movlw	1
  1796  0620  2E22               	goto	u1230
  1797  0621                     u1220:
  1798  0621  3000               	movlw	0
  1799  0622                     u1230:
  1800  0622  1283               	bcf	3,5	;RP0=0, select bank0
  1801  0623  1303               	bcf	3,6	;RP1=0, select bank0
  1802  0624  00A0               	movwf	??___fladd
  1803  0625  0820               	movf	??___fladd,w
  1804  0626  00FB               	movwf	___fladd@grs
  1805  0627  3000               	movlw	0
  1806  0628  00F3               	movwf	___fladd@b+3
  1807  0629  3000               	movlw	0
  1808  062A  00F2               	movwf	___fladd@b+2
  1809  062B  3000               	movlw	0
  1810  062C  00F1               	movwf	___fladd@b+1
  1811  062D  3000               	movlw	0
  1812  062E  00F0               	movwf	___fladd@b
  1813  062F  0879               	movf	___fladd@aexp,w
  1814  0630  00A0               	movwf	??___fladd
  1815  0631  0820               	movf	??___fladd,w
  1816  0632  00FA               	movwf	___fladd@bexp
  1817  0633  2E5F               	goto	l541
  1818  0634                     l543:
  1819  0634  1C7B               	btfss	___fladd@grs,0
  1820  0635  2E37               	goto	u1241
  1821  0636  2E38               	goto	u1240
  1822  0637                     u1241:
  1823  0637  2E43               	goto	l1318
  1824  0638                     u1240:
  1825  0638                     l1316:
  1826  0638  087B               	movf	___fladd@grs,w
  1827  0639  1283               	bcf	3,5	;RP0=0, select bank0
  1828  063A  1303               	bcf	3,6	;RP1=0, select bank0
  1829  063B  00A0               	movwf	??___fladd
  1830  063C  1003               	clrc
  1831  063D  0C20               	rrf	??___fladd,w
  1832  063E  3801               	iorlw	1
  1833  063F  00A1               	movwf	??___fladd+1
  1834  0640  0821               	movf	??___fladd+1,w
  1835  0641  00FB               	movwf	___fladd@grs
  1836  0642  2E45               	goto	l1320
  1837  0643                     l1318:
  1838  0643  1003               	clrc
  1839  0644  0CFB               	rrf	___fladd@grs,f
  1840  0645                     l1320:
  1841  0645  1C70               	btfss	___fladd@b,0
  1842  0646  2E48               	goto	u1251
  1843  0647  2E49               	goto	u1250
  1844  0648                     u1251:
  1845  0648  2E4A               	goto	l1324
  1846  0649                     u1250:
  1847  0649                     l1322:
  1848  0649  17FB               	bsf	___fladd@grs,7
  1849  064A                     l1324:
  1850  064A  3001               	movlw	1
  1851  064B  1283               	bcf	3,5	;RP0=0, select bank0
  1852  064C  1303               	bcf	3,6	;RP1=0, select bank0
  1853  064D  00A0               	movwf	??___fladd
  1854  064E                     u1265:
  1855  064E  0D73               	rlf	___fladd@b+3,w
  1856  064F  0CF3               	rrf	___fladd@b+3,f
  1857  0650  0CF2               	rrf	___fladd@b+2,f
  1858  0651  0CF1               	rrf	___fladd@b+1,f
  1859  0652  0CF0               	rrf	___fladd@b,f
  1860  0653  0BA0               	decfsz	??___fladd& (0+127),f
  1861  0654  2E4E               	goto	u1265
  1862  0655                     l1326:
  1863  0655  3001               	movlw	1
  1864  0656  00A0               	movwf	??___fladd
  1865  0657  0820               	movf	??___fladd,w
  1866  0658  07FA               	addwf	___fladd@bexp,f
  1867  0659                     l1328:
  1868  0659  0879               	movf	___fladd@aexp,w
  1869  065A  027A               	subwf	___fladd@bexp,w
  1870  065B  1C03               	skipc
  1871  065C  2E5E               	goto	u1271
  1872  065D  2E5F               	goto	u1270
  1873  065E                     u1271:
  1874  065E  2E34               	goto	l543
  1875  065F                     u1270:
  1876  065F                     l541:
  1877  065F  1B78               	btfsc	___fladd@signs,6
  1878  0660  2E62               	goto	u1281
  1879  0661  2E63               	goto	u1280
  1880  0662                     u1281:
  1881  0662  2EB2               	goto	l1354
  1882  0663                     u1280:
  1883  0663                     l1330:
  1884  0663  087A               	movf	___fladd@bexp,w
  1885  0664  1D03               	btfss	3,2
  1886  0665  2E67               	goto	u1291
  1887  0666  2E68               	goto	u1290
  1888  0667                     u1291:
  1889  0667  2E71               	goto	l1336
  1890  0668                     u1290:
  1891  0668                     l1332:
  1892  0668  3000               	movlw	0
  1893  0669  00F3               	movwf	?___fladd+3
  1894  066A  3000               	movlw	0
  1895  066B  00F2               	movwf	?___fladd+2
  1896  066C  3000               	movlw	0
  1897  066D  00F1               	movwf	?___fladd+1
  1898  066E  3000               	movlw	0
  1899  066F  00F0               	movwf	?___fladd
  1900  0670  2FEA               	goto	l550
  1901  0671                     l1336:
  1902  0671  0874               	movf	___fladd@a,w
  1903  0672  07F0               	addwf	___fladd@b,f
  1904  0673  0875               	movf	___fladd@a+1,w
  1905  0674  1103               	clrz
  1906  0675  1803               	skipnc
  1907  0676  3E01               	addlw	1
  1908  0677  1903               	skipnz
  1909  0678  2E7A               	goto	u1301
  1910  0679  07F1               	addwf	___fladd@b+1,f
  1911  067A                     u1301:
  1912  067A  0876               	movf	___fladd@a+2,w
  1913  067B  1103               	clrz
  1914  067C  1803               	skipnc
  1915  067D  3E01               	addlw	1
  1916  067E  1903               	skipnz
  1917  067F  2E81               	goto	u1302
  1918  0680  07F2               	addwf	___fladd@b+2,f
  1919  0681                     u1302:
  1920  0681  0877               	movf	___fladd@a+3,w
  1921  0682  1103               	clrz
  1922  0683  1803               	skipnc
  1923  0684  3E01               	addlw	1
  1924  0685  1903               	skipnz
  1925  0686  2E88               	goto	u1303
  1926  0687  07F3               	addwf	___fladd@b+3,f
  1927  0688                     u1303:
  1928  0688                     l1338:
  1929  0688  1C73               	btfss	___fladd@b+3,0
  1930  0689  2E8B               	goto	u1311
  1931  068A  2E8C               	goto	u1310
  1932  068B                     u1311:
  1933  068B  2F6A               	goto	l1388
  1934  068C                     u1310:
  1935  068C                     l1340:
  1936  068C  1C7B               	btfss	___fladd@grs,0
  1937  068D  2E8F               	goto	u1321
  1938  068E  2E90               	goto	u1320
  1939  068F                     u1321:
  1940  068F  2E9B               	goto	l1344
  1941  0690                     u1320:
  1942  0690                     l1342:
  1943  0690  087B               	movf	___fladd@grs,w
  1944  0691  1283               	bcf	3,5	;RP0=0, select bank0
  1945  0692  1303               	bcf	3,6	;RP1=0, select bank0
  1946  0693  00A0               	movwf	??___fladd
  1947  0694  1003               	clrc
  1948  0695  0C20               	rrf	??___fladd,w
  1949  0696  3801               	iorlw	1
  1950  0697  00A1               	movwf	??___fladd+1
  1951  0698  0821               	movf	??___fladd+1,w
  1952  0699  00FB               	movwf	___fladd@grs
  1953  069A  2E9D               	goto	l1346
  1954  069B                     l1344:
  1955  069B  1003               	clrc
  1956  069C  0CFB               	rrf	___fladd@grs,f
  1957  069D                     l1346:
  1958  069D  1C70               	btfss	___fladd@b,0
  1959  069E  2EA0               	goto	u1331
  1960  069F  2EA1               	goto	u1330
  1961  06A0                     u1331:
  1962  06A0  2EA2               	goto	l1350
  1963  06A1                     u1330:
  1964  06A1                     l1348:
  1965  06A1  17FB               	bsf	___fladd@grs,7
  1966  06A2                     l1350:
  1967  06A2  3001               	movlw	1
  1968  06A3  1283               	bcf	3,5	;RP0=0, select bank0
  1969  06A4  1303               	bcf	3,6	;RP1=0, select bank0
  1970  06A5  00A0               	movwf	??___fladd
  1971  06A6                     u1345:
  1972  06A6  0D73               	rlf	___fladd@b+3,w
  1973  06A7  0CF3               	rrf	___fladd@b+3,f
  1974  06A8  0CF2               	rrf	___fladd@b+2,f
  1975  06A9  0CF1               	rrf	___fladd@b+1,f
  1976  06AA  0CF0               	rrf	___fladd@b,f
  1977  06AB  0BA0               	decfsz	??___fladd& (0+127),f
  1978  06AC  2EA6               	goto	u1345
  1979  06AD                     l1352:
  1980  06AD  3001               	movlw	1
  1981  06AE  00A0               	movwf	??___fladd
  1982  06AF  0820               	movf	??___fladd,w
  1983  06B0  07FA               	addwf	___fladd@bexp,f
  1984  06B1  2F6A               	goto	l1388
  1985  06B2                     l1354:
  1986  06B2  0873               	movf	___fladd@b+3,w
  1987  06B3  3A80               	xorlw	128
  1988  06B4  00FF               	movwf	btemp+1
  1989  06B5  0877               	movf	___fladd@a+3,w
  1990  06B6  3A80               	xorlw	128
  1991  06B7  027F               	subwf	btemp+1,w
  1992  06B8  1D03               	skipz
  1993  06B9  2EC4               	goto	u1353
  1994  06BA  0876               	movf	___fladd@a+2,w
  1995  06BB  0272               	subwf	___fladd@b+2,w
  1996  06BC  1D03               	skipz
  1997  06BD  2EC4               	goto	u1353
  1998  06BE  0875               	movf	___fladd@a+1,w
  1999  06BF  0271               	subwf	___fladd@b+1,w
  2000  06C0  1D03               	skipz
  2001  06C1  2EC4               	goto	u1353
  2002  06C2  0874               	movf	___fladd@a,w
  2003  06C3  0270               	subwf	___fladd@b,w
  2004  06C4                     u1353:
  2005  06C4  1803               	skipnc
  2006  06C5  2EC7               	goto	u1351
  2007  06C6  2EC8               	goto	u1350
  2008  06C7                     u1351:
  2009  06C7  2F22               	goto	l1364
  2010  06C8                     u1350:
  2011  06C8                     l1356:
  2012  06C8  30FF               	movlw	255
  2013  06C9  1283               	bcf	3,5	;RP0=0, select bank0
  2014  06CA  1303               	bcf	3,6	;RP1=0, select bank0
  2015  06CB  00A0               	movwf	??___fladd
  2016  06CC  30FF               	movlw	255
  2017  06CD  00A1               	movwf	??___fladd+1
  2018  06CE  30FF               	movlw	255
  2019  06CF  00A2               	movwf	??___fladd+2
  2020  06D0  30FF               	movlw	255
  2021  06D1  00A3               	movwf	??___fladd+3
  2022  06D2  0874               	movf	___fladd@a,w
  2023  06D3  00A4               	movwf	??___fladd+4
  2024  06D4  0875               	movf	___fladd@a+1,w
  2025  06D5  00A5               	movwf	??___fladd+5
  2026  06D6  0876               	movf	___fladd@a+2,w
  2027  06D7  00A6               	movwf	??___fladd+6
  2028  06D8  0877               	movf	___fladd@a+3,w
  2029  06D9  00A7               	movwf	??___fladd+7
  2030  06DA  0870               	movf	___fladd@b,w
  2031  06DB  02A4               	subwf	??___fladd+4,f
  2032  06DC  0871               	movf	___fladd@b+1,w
  2033  06DD  1C03               	skipc
  2034  06DE  0F71               	incfsz	___fladd@b+1,w
  2035  06DF  2EE1               	goto	u1361
  2036  06E0  2EE2               	goto	u1362
  2037  06E1                     u1361:
  2038  06E1  02A5               	subwf	??___fladd+5,f
  2039  06E2                     u1362:
  2040  06E2  0872               	movf	___fladd@b+2,w
  2041  06E3  1C03               	skipc
  2042  06E4  0F72               	incfsz	___fladd@b+2,w
  2043  06E5  2EE7               	goto	u1363
  2044  06E6  2EE8               	goto	u1364
  2045  06E7                     u1363:
  2046  06E7  02A6               	subwf	??___fladd+6,f
  2047  06E8                     u1364:
  2048  06E8  0873               	movf	___fladd@b+3,w
  2049  06E9  1C03               	skipc
  2050  06EA  0F73               	incfsz	___fladd@b+3,w
  2051  06EB  2EED               	goto	u1365
  2052  06EC  2EEE               	goto	u1366
  2053  06ED                     u1365:
  2054  06ED  02A7               	subwf	??___fladd+7,f
  2055  06EE                     u1366:
  2056  06EE  0824               	movf	??___fladd+4,w
  2057  06EF  07A0               	addwf	??___fladd,f
  2058  06F0  0825               	movf	??___fladd+5,w
  2059  06F1  1803               	skipnc
  2060  06F2  0F25               	incfsz	??___fladd+5,w
  2061  06F3  2EF5               	goto	u1370
  2062  06F4  2EF6               	goto	u1371
  2063  06F5                     u1370:
  2064  06F5  07A1               	addwf	??___fladd+1,f
  2065  06F6                     u1371:
  2066  06F6  0826               	movf	??___fladd+6,w
  2067  06F7  1803               	skipnc
  2068  06F8  0F26               	incfsz	??___fladd+6,w
  2069  06F9  2EFB               	goto	u1372
  2070  06FA  2EFC               	goto	u1373
  2071  06FB                     u1372:
  2072  06FB  07A2               	addwf	??___fladd+2,f
  2073  06FC                     u1373:
  2074  06FC  0827               	movf	??___fladd+7,w
  2075  06FD  1803               	skipnc
  2076  06FE  0A27               	incf	??___fladd+7,w
  2077  06FF  07A3               	addwf	??___fladd+3,f
  2078  0700  0823               	movf	??___fladd+3,w
  2079  0701  00F3               	movwf	___fladd@b+3
  2080  0702  0822               	movf	??___fladd+2,w
  2081  0703  00F2               	movwf	___fladd@b+2
  2082  0704  0821               	movf	??___fladd+1,w
  2083  0705  00F1               	movwf	___fladd@b+1
  2084  0706  0820               	movf	??___fladd,w
  2085  0707  00F0               	movwf	___fladd@b
  2086  0708                     l1358:
  2087  0708  3080               	movlw	128
  2088  0709  00A0               	movwf	??___fladd
  2089  070A  0820               	movf	??___fladd,w
  2090  070B  06F8               	xorwf	___fladd@signs,f
  2091  070C  09FB               	comf	___fladd@grs,f
  2092  070D  0AFB               	incf	___fladd@grs,f
  2093  070E                     l1360:
  2094  070E  087B               	movf	___fladd@grs,w
  2095  070F  1D03               	btfss	3,2
  2096  0710  2F12               	goto	u1381
  2097  0711  2F13               	goto	u1380
  2098  0712                     u1381:
  2099  0712  2F30               	goto	l558
  2100  0713                     u1380:
  2101  0713                     l1362:
  2102  0713  3001               	movlw	1
  2103  0714  07F0               	addwf	___fladd@b,f
  2104  0715  3000               	movlw	0
  2105  0716  1803               	skipnc
  2106  0717  3001               	movlw	1
  2107  0718  07F1               	addwf	___fladd@b+1,f
  2108  0719  3000               	movlw	0
  2109  071A  1803               	skipnc
  2110  071B  3001               	movlw	1
  2111  071C  07F2               	addwf	___fladd@b+2,f
  2112  071D  3000               	movlw	0
  2113  071E  1803               	skipnc
  2114  071F  3001               	movlw	1
  2115  0720  07F3               	addwf	___fladd@b+3,f
  2116  0721  2F30               	goto	l558
  2117  0722                     l1364:
  2118  0722  0874               	movf	___fladd@a,w
  2119  0723  02F0               	subwf	___fladd@b,f
  2120  0724  0875               	movf	___fladd@a+1,w
  2121  0725  1C03               	skipc
  2122  0726  0F75               	incfsz	___fladd@a+1,w
  2123  0727  02F1               	subwf	___fladd@b+1,f
  2124  0728  0876               	movf	___fladd@a+2,w
  2125  0729  1C03               	skipc
  2126  072A  0F76               	incfsz	___fladd@a+2,w
  2127  072B  02F2               	subwf	___fladd@b+2,f
  2128  072C  0877               	movf	___fladd@a+3,w
  2129  072D  1C03               	skipc
  2130  072E  0F77               	incfsz	___fladd@a+3,w
  2131  072F  02F3               	subwf	___fladd@b+3,f
  2132  0730                     l558:
  2133  0730  0873               	movf	___fladd@b+3,w
  2134  0731  0472               	iorwf	___fladd@b+2,w
  2135  0732  0471               	iorwf	___fladd@b+1,w
  2136  0733  0470               	iorwf	___fladd@b,w
  2137  0734  1D03               	skipz
  2138  0735  2F37               	goto	u1391
  2139  0736  2F38               	goto	u1390
  2140  0737                     u1391:
  2141  0737  2F66               	goto	l1386
  2142  0738                     u1390:
  2143  0738                     l1366:
  2144  0738  087B               	movf	___fladd@grs,w
  2145  0739  1D03               	btfss	3,2
  2146  073A  2F3C               	goto	u1401
  2147  073B  2F3D               	goto	u1400
  2148  073C                     u1401:
  2149  073C  2F66               	goto	l1386
  2150  073D                     u1400:
  2151  073D                     l1368:
  2152  073D  3000               	movlw	0
  2153  073E  00F3               	movwf	?___fladd+3
  2154  073F  3000               	movlw	0
  2155  0740  00F2               	movwf	?___fladd+2
  2156  0741  3000               	movlw	0
  2157  0742  00F1               	movwf	?___fladd+1
  2158  0743  3000               	movlw	0
  2159  0744  00F0               	movwf	?___fladd
  2160  0745  2FEA               	goto	l550
  2161  0746                     l1372:
  2162  0746  3001               	movlw	1
  2163  0747  1283               	bcf	3,5	;RP0=0, select bank0
  2164  0748  1303               	bcf	3,6	;RP1=0, select bank0
  2165  0749  00A0               	movwf	??___fladd
  2166  074A                     u1415:
  2167  074A  1003               	clrc
  2168  074B  0DF0               	rlf	___fladd@b,f
  2169  074C  0DF1               	rlf	___fladd@b+1,f
  2170  074D  0DF2               	rlf	___fladd@b+2,f
  2171  074E  0DF3               	rlf	___fladd@b+3,f
  2172  074F  0BA0               	decfsz	??___fladd,f
  2173  0750  2F4A               	goto	u1415
  2174  0751                     l1374:
  2175  0751  1FFB               	btfss	___fladd@grs,7
  2176  0752  2F54               	goto	u1421
  2177  0753  2F55               	goto	u1420
  2178  0754                     u1421:
  2179  0754  2F56               	goto	l562
  2180  0755                     u1420:
  2181  0755                     l1376:
  2182  0755  1470               	bsf	___fladd@b,0
  2183  0756                     l562:
  2184  0756  1C7B               	btfss	___fladd@grs,0
  2185  0757  2F59               	goto	u1431
  2186  0758  2F5A               	goto	u1430
  2187  0759                     u1431:
  2188  0759  2F5D               	goto	l1380
  2189  075A                     u1430:
  2190  075A                     l1378:
  2191  075A  1403               	setc
  2192  075B  0DFB               	rlf	___fladd@grs,f
  2193  075C  2F5F               	goto	l1382
  2194  075D                     l1380:
  2195  075D  1003               	clrc
  2196  075E  0DFB               	rlf	___fladd@grs,f
  2197  075F                     l1382:
  2198  075F  087A               	movf	___fladd@bexp,w
  2199  0760  1903               	btfsc	3,2
  2200  0761  2F63               	goto	u1441
  2201  0762  2F64               	goto	u1440
  2202  0763                     u1441:
  2203  0763  2F66               	goto	l1386
  2204  0764                     u1440:
  2205  0764                     l1384:
  2206  0764  3001               	movlw	1
  2207  0765  02FA               	subwf	___fladd@bexp,f
  2208  0766                     l1386:
  2209  0766  1FF2               	btfss	___fladd@b+2,7
  2210  0767  2F69               	goto	u1451
  2211  0768  2F6A               	goto	u1450
  2212  0769                     u1451:
  2213  0769  2F46               	goto	l1372
  2214  076A                     u1450:
  2215  076A                     l1388:
  2216  076A  01F9               	clrf	___fladd@aexp
  2217  076B                     l1390:
  2218  076B  1FFB               	btfss	___fladd@grs,7
  2219  076C  2F6E               	goto	u1461
  2220  076D  2F6F               	goto	u1460
  2221  076E                     u1461:
  2222  076E  2F7D               	goto	l1398
  2223  076F                     u1460:
  2224  076F                     l1392:
  2225  076F  087B               	movf	___fladd@grs,w
  2226  0770  397F               	andlw	127
  2227  0771  1903               	btfsc	3,2
  2228  0772  2F74               	goto	u1471
  2229  0773  2F75               	goto	u1470
  2230  0774                     u1471:
  2231  0774  2F78               	goto	l568
  2232  0775                     u1470:
  2233  0775                     l1394:
  2234  0775  01F9               	clrf	___fladd@aexp
  2235  0776  0AF9               	incf	___fladd@aexp,f
  2236  0777  2F7D               	goto	l1398
  2237  0778                     l568:
  2238  0778  1C70               	btfss	___fladd@b,0
  2239  0779  2F7B               	goto	u1481
  2240  077A  2F7C               	goto	u1480
  2241  077B                     u1481:
  2242  077B  2F7D               	goto	l1398
  2243  077C                     u1480:
  2244  077C  2F75               	goto	l1394
  2245  077D                     l1398:
  2246  077D  0879               	movf	___fladd@aexp,w
  2247  077E  1903               	btfsc	3,2
  2248  077F  2F81               	goto	u1491
  2249  0780  2F82               	goto	u1490
  2250  0781                     u1491:
  2251  0781  2FB8               	goto	l571
  2252  0782                     u1490:
  2253  0782                     l1400:
  2254  0782  3001               	movlw	1
  2255  0783  07F0               	addwf	___fladd@b,f
  2256  0784  3000               	movlw	0
  2257  0785  1803               	skipnc
  2258  0786  3001               	movlw	1
  2259  0787  07F1               	addwf	___fladd@b+1,f
  2260  0788  3000               	movlw	0
  2261  0789  1803               	skipnc
  2262  078A  3001               	movlw	1
  2263  078B  07F2               	addwf	___fladd@b+2,f
  2264  078C  3000               	movlw	0
  2265  078D  1803               	skipnc
  2266  078E  3001               	movlw	1
  2267  078F  07F3               	addwf	___fladd@b+3,f
  2268  0790                     l1402:
  2269  0790  1C73               	btfss	___fladd@b+3,0
  2270  0791  2F93               	goto	u1501
  2271  0792  2F94               	goto	u1500
  2272  0793                     u1501:
  2273  0793  2FB8               	goto	l571
  2274  0794                     u1500:
  2275  0794                     l1404:
  2276  0794  0870               	movf	___fladd@b,w
  2277  0795  1283               	bcf	3,5	;RP0=0, select bank0
  2278  0796  1303               	bcf	3,6	;RP1=0, select bank0
  2279  0797  00A0               	movwf	??___fladd
  2280  0798  0871               	movf	___fladd@b+1,w
  2281  0799  00A1               	movwf	??___fladd+1
  2282  079A  0872               	movf	___fladd@b+2,w
  2283  079B  00A2               	movwf	??___fladd+2
  2284  079C  0873               	movf	___fladd@b+3,w
  2285  079D  00A3               	movwf	??___fladd+3
  2286  079E  3001               	movlw	1
  2287  079F  00A4               	movwf	??___fladd+4
  2288  07A0                     u1515:
  2289  07A0  0D23               	rlf	??___fladd+3,w
  2290  07A1  0CA3               	rrf	??___fladd+3,f
  2291  07A2  0CA2               	rrf	??___fladd+2,f
  2292  07A3  0CA1               	rrf	??___fladd+1,f
  2293  07A4  0CA0               	rrf	??___fladd,f
  2294  07A5                     u1510:
  2295  07A5  0BA4               	decfsz	??___fladd+4,f
  2296  07A6  2FA0               	goto	u1515
  2297  07A7  0823               	movf	??___fladd+3,w
  2298  07A8  00F3               	movwf	___fladd@b+3
  2299  07A9  0822               	movf	??___fladd+2,w
  2300  07AA  00F2               	movwf	___fladd@b+2
  2301  07AB  0821               	movf	??___fladd+1,w
  2302  07AC  00F1               	movwf	___fladd@b+1
  2303  07AD  0820               	movf	??___fladd,w
  2304  07AE  00F0               	movwf	___fladd@b
  2305  07AF  0A7A               	incf	___fladd@bexp,w
  2306  07B0  1903               	btfsc	3,2
  2307  07B1  2FB3               	goto	u1521
  2308  07B2  2FB4               	goto	u1520
  2309  07B3                     u1521:
  2310  07B3  2FB8               	goto	l571
  2311  07B4                     u1520:
  2312  07B4                     l1406:
  2313  07B4  3001               	movlw	1
  2314  07B5  00A0               	movwf	??___fladd
  2315  07B6  0820               	movf	??___fladd,w
  2316  07B7  07FA               	addwf	___fladd@bexp,f
  2317  07B8                     l571:
  2318  07B8  0A7A               	incf	___fladd@bexp,w
  2319  07B9  1903               	btfsc	3,2
  2320  07BA  2FBC               	goto	u1531
  2321  07BB  2FBD               	goto	u1530
  2322  07BC                     u1531:
  2323  07BC  2FC2               	goto	l1410
  2324  07BD                     u1530:
  2325  07BD                     l1408:
  2326  07BD  087A               	movf	___fladd@bexp,w
  2327  07BE  1D03               	btfss	3,2
  2328  07BF  2FC1               	goto	u1541
  2329  07C0  2FC2               	goto	u1540
  2330  07C1                     u1541:
  2331  07C1  2FD0               	goto	l1416
  2332  07C2                     u1540:
  2333  07C2                     l1410:
  2334  07C2  3000               	movlw	0
  2335  07C3  00F3               	movwf	___fladd@b+3
  2336  07C4  3000               	movlw	0
  2337  07C5  00F2               	movwf	___fladd@b+2
  2338  07C6  3000               	movlw	0
  2339  07C7  00F1               	movwf	___fladd@b+1
  2340  07C8  3000               	movlw	0
  2341  07C9  00F0               	movwf	___fladd@b
  2342  07CA                     l1412:
  2343  07CA  087A               	movf	___fladd@bexp,w
  2344  07CB  1D03               	btfss	3,2
  2345  07CC  2FCE               	goto	u1551
  2346  07CD  2FCF               	goto	u1550
  2347  07CE                     u1551:
  2348  07CE  2FD0               	goto	l1416
  2349  07CF                     u1550:
  2350  07CF                     l1414:
  2351  07CF  01F8               	clrf	___fladd@signs
  2352  07D0                     l1416:
  2353  07D0  1C7A               	btfss	___fladd@bexp,0
  2354  07D1  2FD3               	goto	u1561
  2355  07D2  2FD4               	goto	u1560
  2356  07D3                     u1561:
  2357  07D3  2FD6               	goto	l1420
  2358  07D4                     u1560:
  2359  07D4                     l1418:
  2360  07D4  17F2               	bsf	___fladd@b+2,7
  2361  07D5  2FDC               	goto	l579
  2362  07D6                     l1420:
  2363  07D6  307F               	movlw	127
  2364  07D7  1283               	bcf	3,5	;RP0=0, select bank0
  2365  07D8  1303               	bcf	3,6	;RP1=0, select bank0
  2366  07D9  00A0               	movwf	??___fladd
  2367  07DA  0820               	movf	??___fladd,w
  2368  07DB  05F2               	andwf	___fladd@b+2,f
  2369  07DC                     l579:
  2370  07DC  087A               	movf	___fladd@bexp,w
  2371  07DD  1283               	bcf	3,5	;RP0=0, select bank0
  2372  07DE  1303               	bcf	3,6	;RP1=0, select bank0
  2373  07DF  00A0               	movwf	??___fladd
  2374  07E0  1003               	clrc
  2375  07E1  0C20               	rrf	??___fladd,w
  2376  07E2  00A1               	movwf	??___fladd+1
  2377  07E3  0821               	movf	??___fladd+1,w
  2378  07E4  00F3               	movwf	___fladd@b+3
  2379  07E5                     l1422:
  2380  07E5  1FF8               	btfss	___fladd@signs,7
  2381  07E6  2FE8               	goto	u1571
  2382  07E7  2FE9               	goto	u1570
  2383  07E8                     u1571:
  2384  07E8  2FEA               	goto	l580
  2385  07E9                     u1570:
  2386  07E9                     l1424:
  2387  07E9  17F3               	bsf	___fladd@b+3,7
  2388  07EA                     l580:
  2389  07EA                     l550:
  2390  07EA  0008               	return
  2391  07EB                     __end_of___fladd:
  2392                           
  2393                           	psect	text7
  2394  01EA                     __ptext7:	
  2395 ;; *************** function _I2C_restart *****************
  2396 ;; Defined at:
  2397 ;;		line 27 in file "./I2C.h"
  2398 ;; Parameters:    Size  Location     Type
  2399 ;;		None
  2400 ;; Auto vars:     Size  Location     Type
  2401 ;;		None
  2402 ;; Return value:  Size  Location     Type
  2403 ;;                  1    wreg      void 
  2404 ;; Registers used:
  2405 ;;		None
  2406 ;; Tracked objects:
  2407 ;;		On entry : 0/0
  2408 ;;		On exit  : 0/0
  2409 ;;		Unchanged: 0/0
  2410 ;; Data sizes:     COMMON   BANK0   BANK1   BANK3   BANK2
  2411 ;;      Params:         0       0       0       0       0
  2412 ;;      Locals:         0       0       0       0       0
  2413 ;;      Temps:          0       0       0       0       0
  2414 ;;      Totals:         0       0       0       0       0
  2415 ;;Total ram usage:        0 bytes
  2416 ;; Hardware stack levels used:    1
  2417 ;; This function calls:
  2418 ;;		Nothing
  2419 ;; This function is called by:
  2420 ;;		_LM75_read
  2421 ;;		_LM75_readConfig
  2422 ;; This function uses a non-reentrant model
  2423 ;;
  2424                           
  2425                           
  2426                           ;psect for function _I2C_restart
  2427  01EA                     _I2C_restart:
  2428  01EA                     l1478:	
  2429                           ;incstack = 0
  2430                           ; Regs used in _I2C_restart: []
  2431                           
  2432                           
  2433                           ;./I2C.h: 29:   RSEN = 1;
  2434  01EA  1683               	bsf	3,5	;RP0=1, select bank1
  2435  01EB  1303               	bcf	3,6	;RP1=0, select bank1
  2436  01EC  1491               	bsf	17,1	;volatile
  2437  01ED                     l54:	
  2438                           ;./I2C.h: 30:   while(!SSPIF);
  2439                           
  2440  01ED  1283               	bcf	3,5	;RP0=0, select bank0
  2441  01EE  1D8C               	btfss	12,3	;volatile
  2442  01EF  29F1               	goto	u1721
  2443  01F0  29F2               	goto	u1720
  2444  01F1                     u1721:
  2445  01F1  29ED               	goto	l54
  2446  01F2                     u1720:
  2447  01F2                     l56:
  2448                           
  2449                           ;./I2C.h: 31:   SSPIF = 0;
  2450  01F2  118C               	bcf	12,3	;volatile
  2451  01F3                     l57:
  2452  01F3  0008               	return
  2453  01F4                     __end_of_I2C_restart:
  2454                           
  2455                           	psect	text8
  2456  0212                     __ptext8:	
  2457 ;; *************** function _I2C_read *****************
  2458 ;; Defined at:
  2459 ;;		line 58 in file "./I2C.h"
  2460 ;; Parameters:    Size  Location     Type
  2461 ;;  acknowledge     1    wreg     unsigned char 
  2462 ;; Auto vars:     Size  Location     Type
  2463 ;;  acknowledge     1    1[COMMON] unsigned char 
  2464 ;; Return value:  Size  Location     Type
  2465 ;;                  1    wreg      unsigned char 
  2466 ;; Registers used:
  2467 ;;		wreg, status,2, status,0, pclath, cstack
  2468 ;; Tracked objects:
  2469 ;;		On entry : 0/0
  2470 ;;		On exit  : 0/0
  2471 ;;		Unchanged: 0/0
  2472 ;; Data sizes:     COMMON   BANK0   BANK1   BANK3   BANK2
  2473 ;;      Params:         0       0       0       0       0
  2474 ;;      Locals:         1       0       0       0       0
  2475 ;;      Temps:          0       0       0       0       0
  2476 ;;      Totals:         1       0       0       0       0
  2477 ;;Total ram usage:        1 bytes
  2478 ;; Hardware stack levels used:    1
  2479 ;; Hardware stack levels required when called:    1
  2480 ;; This function calls:
  2481 ;;		_I2C_ack
  2482 ;; This function is called by:
  2483 ;;		_LM75_read
  2484 ;;		_LM75_readConfig
  2485 ;; This function uses a non-reentrant model
  2486 ;;
  2487                           
  2488                           
  2489                           ;psect for function _I2C_read
  2490  0212                     _I2C_read:
  2491                           
  2492                           ;incstack = 0
  2493                           ; Regs used in _I2C_read: [wreg+status,2+status,0+pclath+cstack]
  2494                           ;I2C_read@acknowledge stored from wreg
  2495  0212  00F1               	movwf	I2C_read@acknowledge
  2496  0213                     l1480:
  2497                           
  2498                           ;./I2C.h: 58: unsigned char I2C_read(char acknowledge);./I2C.h: 59: {;./I2C.h: 60:    RC
      +                          EN = 1;
  2499  0213  1683               	bsf	3,5	;RP0=1, select bank1
  2500  0214  1303               	bcf	3,6	;RP1=0, select bank1
  2501  0215  1591               	bsf	17,3	;volatile
  2502  0216                     l78:	
  2503                           ;./I2C.h: 61:    while(!SSPIF);
  2504                           
  2505  0216  1283               	bcf	3,5	;RP0=0, select bank0
  2506  0217  1D8C               	btfss	12,3	;volatile
  2507  0218  2A1A               	goto	u1731
  2508  0219  2A1B               	goto	u1730
  2509  021A                     u1731:
  2510  021A  2A16               	goto	l78
  2511  021B                     u1730:
  2512  021B                     l80:
  2513                           
  2514                           ;./I2C.h: 62:    SSPIF = 0;
  2515  021B  118C               	bcf	12,3	;volatile
  2516  021C                     l1482:
  2517                           
  2518                           ;./I2C.h: 63:    I2C_ack(acknowledge);
  2519  021C  0871               	movf	I2C_read@acknowledge,w
  2520  021D  120A  118A  21FF  120A  118A  	fcall	_I2C_ack
  2521  0222                     l1484:
  2522                           
  2523                           ;./I2C.h: 65:    return SSPBUF;
  2524  0222  1283               	bcf	3,5	;RP0=0, select bank0
  2525  0223  1303               	bcf	3,6	;RP1=0, select bank0
  2526  0224  0813               	movf	19,w	;volatile
  2527  0225                     l81:
  2528  0225  0008               	return
  2529  0226                     __end_of_I2C_read:
  2530                           
  2531                           	psect	text9
  2532  01FF                     __ptext9:	
  2533 ;; *************** function _I2C_ack *****************
  2534 ;; Defined at:
  2535 ;;		line 41 in file "./I2C.h"
  2536 ;; Parameters:    Size  Location     Type
  2537 ;;  acknowledge     1    wreg     unsigned char 
  2538 ;; Auto vars:     Size  Location     Type
  2539 ;;  acknowledge     1    0[COMMON] unsigned char 
  2540 ;; Return value:  Size  Location     Type
  2541 ;;                  1    wreg      void 
  2542 ;; Registers used:
  2543 ;;		wreg
  2544 ;; Tracked objects:
  2545 ;;		On entry : 0/0
  2546 ;;		On exit  : 0/0
  2547 ;;		Unchanged: 0/0
  2548 ;; Data sizes:     COMMON   BANK0   BANK1   BANK3   BANK2
  2549 ;;      Params:         0       0       0       0       0
  2550 ;;      Locals:         1       0       0       0       0
  2551 ;;      Temps:          0       0       0       0       0
  2552 ;;      Totals:         1       0       0       0       0
  2553 ;;Total ram usage:        1 bytes
  2554 ;; Hardware stack levels used:    1
  2555 ;; This function calls:
  2556 ;;		Nothing
  2557 ;; This function is called by:
  2558 ;;		_I2C_read
  2559 ;; This function uses a non-reentrant model
  2560 ;;
  2561                           
  2562                           
  2563                           ;psect for function _I2C_ack
  2564  01FF                     _I2C_ack:
  2565                           
  2566                           ;incstack = 0
  2567                           ; Regs used in _I2C_ack: [wreg]
  2568                           ;I2C_ack@acknowledge stored from wreg
  2569  01FF  00F0               	movwf	I2C_ack@acknowledge
  2570  0200                     l1188:
  2571                           
  2572                           ;./I2C.h: 41: void I2C_ack(char acknowledge);./I2C.h: 42: {;./I2C.h: 43:   ACKDT = ackno
      +                          wledge;
  2573  0200  1870               	btfsc	I2C_ack@acknowledge,0
  2574  0201  2A03               	goto	u981
  2575  0202  2A07               	goto	u980
  2576  0203                     u981:
  2577  0203  1683               	bsf	3,5	;RP0=1, select bank1
  2578  0204  1303               	bcf	3,6	;RP1=0, select bank1
  2579  0205  1691               	bsf	17,5	;volatile
  2580  0206  2A0A               	goto	u994
  2581  0207                     u980:
  2582  0207  1683               	bsf	3,5	;RP0=1, select bank1
  2583  0208  1303               	bcf	3,6	;RP1=0, select bank1
  2584  0209  1291               	bcf	17,5	;volatile
  2585  020A                     u994:
  2586                           
  2587                           ;./I2C.h: 44:   ACKEN = 1;
  2588  020A  1611               	bsf	17,4	;volatile
  2589  020B                     l66:	
  2590                           ;./I2C.h: 45:   while(!SSPIF);
  2591                           
  2592  020B  1283               	bcf	3,5	;RP0=0, select bank0
  2593  020C  1D8C               	btfss	12,3	;volatile
  2594  020D  2A0F               	goto	u1001
  2595  020E  2A10               	goto	u1000
  2596  020F                     u1001:
  2597  020F  2A0B               	goto	l66
  2598  0210                     u1000:
  2599  0210                     l68:
  2600                           
  2601                           ;./I2C.h: 46:   SSPIF = 0;
  2602  0210  118C               	bcf	12,3	;volatile
  2603  0211                     l69:
  2604  0211  0008               	return
  2605  0212                     __end_of_I2C_ack:
  2606                           
  2607                           	psect	text10
  2608  0226                     __ptext10:	
  2609 ;; *************** function _LM75_init *****************
  2610 ;; Defined at:
  2611 ;;		line 8 in file "./LM75.h"
  2612 ;; Parameters:    Size  Location     Type
  2613 ;;		None
  2614 ;; Auto vars:     Size  Location     Type
  2615 ;;		None
  2616 ;; Return value:  Size  Location     Type
  2617 ;;                  1    wreg      void 
  2618 ;; Registers used:
  2619 ;;		wreg, status,2, status,0, pclath, cstack
  2620 ;; Tracked objects:
  2621 ;;		On entry : 0/0
  2622 ;;		On exit  : 0/0
  2623 ;;		Unchanged: 0/0
  2624 ;; Data sizes:     COMMON   BANK0   BANK1   BANK3   BANK2
  2625 ;;      Params:         0       0       0       0       0
  2626 ;;      Locals:         0       0       0       0       0
  2627 ;;      Temps:          0       0       0       0       0
  2628 ;;      Totals:         0       0       0       0       0
  2629 ;;Total ram usage:        0 bytes
  2630 ;; Hardware stack levels used:    1
  2631 ;; Hardware stack levels required when called:    2
  2632 ;; This function calls:
  2633 ;;		_I2C_init
  2634 ;;		_LM75_set
  2635 ;; This function is called by:
  2636 ;;		_main
  2637 ;; This function uses a non-reentrant model
  2638 ;;
  2639                           
  2640                           
  2641                           ;psect for function _LM75_init
  2642  0226                     _LM75_init:
  2643  0226                     l1510:	
  2644                           ;incstack = 0
  2645                           ; Regs used in _LM75_init: [wreg+status,2+status,0+pclath+cstack]
  2646                           
  2647                           
  2648                           ;./LM75.h: 10:   I2C_init(100000);
  2649  0226  30A0               	movlw	160
  2650  0227  120A  118A  2265  120A  118A  	fcall	_I2C_init
  2651                           
  2652                           ;./LM75.h: 13:   LM75_set(0x03,0x2380);
  2653  022C  3080               	movlw	128
  2654  022D  00F1               	movwf	LM75_set@data
  2655  022E  3023               	movlw	35
  2656  022F  00F2               	movwf	LM75_set@data+1
  2657  0230  3003               	movlw	3
  2658  0231  120A  118A  2241  120A  118A  	fcall	_LM75_set
  2659                           
  2660                           ;./LM75.h: 14:   LM75_set(0x02,0x1E80);
  2661  0236  3080               	movlw	128
  2662  0237  00F1               	movwf	LM75_set@data
  2663  0238  301E               	movlw	30
  2664  0239  00F2               	movwf	LM75_set@data+1
  2665  023A  3002               	movlw	2
  2666  023B  120A  118A  2241  120A  118A  	fcall	_LM75_set
  2667  0240                     l87:
  2668  0240  0008               	return
  2669  0241                     __end_of_LM75_init:
  2670                           
  2671                           	psect	text11
  2672  0241                     __ptext11:	
  2673 ;; *************** function _LM75_set *****************
  2674 ;; Defined at:
  2675 ;;		line 61 in file "./LM75.h"
  2676 ;; Parameters:    Size  Location     Type
  2677 ;;  regAddress      1    wreg     unsigned char 
  2678 ;;  data            2    1[COMMON] int 
  2679 ;; Auto vars:     Size  Location     Type
  2680 ;;  regAddress      1    3[COMMON] unsigned char 
  2681 ;; Return value:  Size  Location     Type
  2682 ;;                  1    wreg      void 
  2683 ;; Registers used:
  2684 ;;		wreg, status,2, status,0, pclath, cstack
  2685 ;; Tracked objects:
  2686 ;;		On entry : 0/0
  2687 ;;		On exit  : 0/0
  2688 ;;		Unchanged: 0/0
  2689 ;; Data sizes:     COMMON   BANK0   BANK1   BANK3   BANK2
  2690 ;;      Params:         2       0       0       0       0
  2691 ;;      Locals:         1       0       0       0       0
  2692 ;;      Temps:          0       0       0       0       0
  2693 ;;      Totals:         3       0       0       0       0
  2694 ;;Total ram usage:        3 bytes
  2695 ;; Hardware stack levels used:    1
  2696 ;; Hardware stack levels required when called:    1
  2697 ;; This function calls:
  2698 ;;		_I2C_start
  2699 ;;		_I2C_stop
  2700 ;;		_I2C_write
  2701 ;; This function is called by:
  2702 ;;		_LM75_init
  2703 ;; This function uses a non-reentrant model
  2704 ;;
  2705                           
  2706                           
  2707                           ;psect for function _LM75_set
  2708  0241                     _LM75_set:
  2709                           
  2710                           ;incstack = 0
  2711                           ; Regs used in _LM75_set: [wreg+status,2+status,0+pclath+cstack]
  2712                           ;LM75_set@regAddress stored from wreg
  2713  0241  00F3               	movwf	LM75_set@regAddress
  2714  0242                     l1488:
  2715                           
  2716                           ;./LM75.h: 61: void LM75_set(char regAddress, int data);./LM75.h: 62: {;./LM75.h: 63:   
      +                          I2C_start();
  2717  0242  120A  118A  21D6  120A  118A  	fcall	_I2C_start
  2718  0247                     l1490:
  2719                           
  2720                           ;./LM75.h: 65:   I2C_write(0x90);
  2721  0247  3090               	movlw	144
  2722  0248  120A  118A  21F4  120A  118A  	fcall	_I2C_write
  2723  024D                     l1492:
  2724                           
  2725                           ;./LM75.h: 66:   I2C_write(regAddress);
  2726  024D  0873               	movf	LM75_set@regAddress,w
  2727  024E  120A  118A  21F4  120A  118A  	fcall	_I2C_write
  2728  0253                     l1494:
  2729                           
  2730                           ;./LM75.h: 67:   I2C_write(data>>8);
  2731  0253  0872               	movf	LM75_set@data+1,w
  2732  0254  120A  118A  21F4  120A  118A  	fcall	_I2C_write
  2733  0259                     l1496:
  2734                           
  2735                           ;./LM75.h: 68:   I2C_write(data);
  2736  0259  0871               	movf	LM75_set@data,w
  2737  025A  120A  118A  21F4  120A  118A  	fcall	_I2C_write
  2738                           
  2739                           ;./LM75.h: 70:   I2C_stop();
  2740  025F  120A  118A  21E0  120A  118A  	fcall	_I2C_stop
  2741  0264                     l99:
  2742  0264  0008               	return
  2743  0265                     __end_of_LM75_set:
  2744                           
  2745                           	psect	text12
  2746  01F4                     __ptext12:	
  2747 ;; *************** function _I2C_write *****************
  2748 ;; Defined at:
  2749 ;;		line 49 in file "./I2C.h"
  2750 ;; Parameters:    Size  Location     Type
  2751 ;;  data            1    wreg     unsigned char 
  2752 ;; Auto vars:     Size  Location     Type
  2753 ;;  data            1    0[COMMON] unsigned char 
  2754 ;; Return value:  Size  Location     Type
  2755 ;;                  1    wreg      unsigned char 
  2756 ;; Registers used:
  2757 ;;		wreg
  2758 ;; Tracked objects:
  2759 ;;		On entry : 0/0
  2760 ;;		On exit  : 0/0
  2761 ;;		Unchanged: 0/0
  2762 ;; Data sizes:     COMMON   BANK0   BANK1   BANK3   BANK2
  2763 ;;      Params:         0       0       0       0       0
  2764 ;;      Locals:         1       0       0       0       0
  2765 ;;      Temps:          0       0       0       0       0
  2766 ;;      Totals:         1       0       0       0       0
  2767 ;;Total ram usage:        1 bytes
  2768 ;; Hardware stack levels used:    1
  2769 ;; This function calls:
  2770 ;;		Nothing
  2771 ;; This function is called by:
  2772 ;;		_LM75_read
  2773 ;;		_LM75_set
  2774 ;;		_LM75_setConfig
  2775 ;;		_LM75_readConfig
  2776 ;; This function uses a non-reentrant model
  2777 ;;
  2778                           
  2779                           
  2780                           ;psect for function _I2C_write
  2781  01F4                     _I2C_write:
  2782                           
  2783                           ;incstack = 0
  2784                           ; Regs used in _I2C_write: [wreg]
  2785                           ;I2C_write@data stored from wreg
  2786  01F4  00F0               	movwf	I2C_write@data
  2787  01F5                     l1190:
  2788                           
  2789                           ;./I2C.h: 49: unsigned char I2C_write(unsigned char data);./I2C.h: 50: {;./I2C.h: 51:   
      +                          SSPBUF = data;
  2790  01F5  0870               	movf	I2C_write@data,w
  2791  01F6  1283               	bcf	3,5	;RP0=0, select bank0
  2792  01F7  1303               	bcf	3,6	;RP1=0, select bank0
  2793  01F8  0093               	movwf	19	;volatile
  2794  01F9                     l72:	
  2795                           ;./I2C.h: 52:   while(!SSPIF);
  2796                           
  2797  01F9  1D8C               	btfss	12,3	;volatile
  2798  01FA  29FC               	goto	u1011
  2799  01FB  29FD               	goto	u1010
  2800  01FC                     u1011:
  2801  01FC  29F9               	goto	l72
  2802  01FD                     u1010:
  2803  01FD                     l74:
  2804                           
  2805                           ;./I2C.h: 53:   SSPIF = 0;
  2806  01FD  118C               	bcf	12,3	;volatile
  2807  01FE                     l75:	
  2808                           ;./I2C.h: 55:   return ACKSTAT;;	Return value of _I2C_write is never used
  2809                           
  2810  01FE  0008               	return
  2811  01FF                     __end_of_I2C_write:
  2812                           
  2813                           	psect	text13
  2814  01E0                     __ptext13:	
  2815 ;; *************** function _I2C_stop *****************
  2816 ;; Defined at:
  2817 ;;		line 34 in file "./I2C.h"
  2818 ;; Parameters:    Size  Location     Type
  2819 ;;		None
  2820 ;; Auto vars:     Size  Location     Type
  2821 ;;		None
  2822 ;; Return value:  Size  Location     Type
  2823 ;;                  1    wreg      void 
  2824 ;; Registers used:
  2825 ;;		None
  2826 ;; Tracked objects:
  2827 ;;		On entry : 0/0
  2828 ;;		On exit  : 0/0
  2829 ;;		Unchanged: 0/0
  2830 ;; Data sizes:     COMMON   BANK0   BANK1   BANK3   BANK2
  2831 ;;      Params:         0       0       0       0       0
  2832 ;;      Locals:         0       0       0       0       0
  2833 ;;      Temps:          0       0       0       0       0
  2834 ;;      Totals:         0       0       0       0       0
  2835 ;;Total ram usage:        0 bytes
  2836 ;; Hardware stack levels used:    1
  2837 ;; This function calls:
  2838 ;;		Nothing
  2839 ;; This function is called by:
  2840 ;;		_LM75_read
  2841 ;;		_LM75_set
  2842 ;;		_LM75_setConfig
  2843 ;;		_LM75_readConfig
  2844 ;; This function uses a non-reentrant model
  2845 ;;
  2846                           
  2847                           
  2848                           ;psect for function _I2C_stop
  2849  01E0                     _I2C_stop:
  2850  01E0                     l1186:	
  2851                           ;incstack = 0
  2852                           ; Regs used in _I2C_stop: []
  2853                           
  2854                           
  2855                           ;./I2C.h: 36:   PEN = 1;
  2856  01E0  1683               	bsf	3,5	;RP0=1, select bank1
  2857  01E1  1303               	bcf	3,6	;RP1=0, select bank1
  2858  01E2  1511               	bsf	17,2	;volatile
  2859  01E3                     l60:	
  2860                           ;./I2C.h: 37:   while(!SSPIF);
  2861                           
  2862  01E3  1283               	bcf	3,5	;RP0=0, select bank0
  2863  01E4  1D8C               	btfss	12,3	;volatile
  2864  01E5  29E7               	goto	u971
  2865  01E6  29E8               	goto	u970
  2866  01E7                     u971:
  2867  01E7  29E3               	goto	l60
  2868  01E8                     u970:
  2869  01E8                     l62:
  2870                           
  2871                           ;./I2C.h: 38:   SSPIF = 0;
  2872  01E8  118C               	bcf	12,3	;volatile
  2873  01E9                     l63:
  2874  01E9  0008               	return
  2875  01EA                     __end_of_I2C_stop:
  2876                           
  2877                           	psect	text14
  2878  01D6                     __ptext14:	
  2879 ;; *************** function _I2C_start *****************
  2880 ;; Defined at:
  2881 ;;		line 20 in file "./I2C.h"
  2882 ;; Parameters:    Size  Location     Type
  2883 ;;		None
  2884 ;; Auto vars:     Size  Location     Type
  2885 ;;		None
  2886 ;; Return value:  Size  Location     Type
  2887 ;;                  1    wreg      void 
  2888 ;; Registers used:
  2889 ;;		None
  2890 ;; Tracked objects:
  2891 ;;		On entry : 0/0
  2892 ;;		On exit  : 0/0
  2893 ;;		Unchanged: 0/0
  2894 ;; Data sizes:     COMMON   BANK0   BANK1   BANK3   BANK2
  2895 ;;      Params:         0       0       0       0       0
  2896 ;;      Locals:         0       0       0       0       0
  2897 ;;      Temps:          0       0       0       0       0
  2898 ;;      Totals:         0       0       0       0       0
  2899 ;;Total ram usage:        0 bytes
  2900 ;; Hardware stack levels used:    1
  2901 ;; This function calls:
  2902 ;;		Nothing
  2903 ;; This function is called by:
  2904 ;;		_LM75_read
  2905 ;;		_LM75_set
  2906 ;;		_LM75_setConfig
  2907 ;;		_LM75_readConfig
  2908 ;; This function uses a non-reentrant model
  2909 ;;
  2910                           
  2911                           
  2912                           ;psect for function _I2C_start
  2913  01D6                     _I2C_start:
  2914  01D6                     l1184:	
  2915                           ;incstack = 0
  2916                           ; Regs used in _I2C_start: []
  2917                           
  2918                           
  2919                           ;./I2C.h: 22:   SEN = 1;
  2920  01D6  1683               	bsf	3,5	;RP0=1, select bank1
  2921  01D7  1303               	bcf	3,6	;RP1=0, select bank1
  2922  01D8  1411               	bsf	17,0	;volatile
  2923  01D9                     l48:	
  2924                           ;./I2C.h: 23:   while(!SSPIF);
  2925                           
  2926  01D9  1283               	bcf	3,5	;RP0=0, select bank0
  2927  01DA  1D8C               	btfss	12,3	;volatile
  2928  01DB  29DD               	goto	u961
  2929  01DC  29DE               	goto	u960
  2930  01DD                     u961:
  2931  01DD  29D9               	goto	l48
  2932  01DE                     u960:
  2933  01DE                     l50:
  2934                           
  2935                           ;./I2C.h: 24:   SSPIF = 0;
  2936  01DE  118C               	bcf	12,3	;volatile
  2937  01DF                     l51:
  2938  01DF  0008               	return
  2939  01E0                     __end_of_I2C_start:
  2940                           
  2941                           	psect	text15
  2942  0265                     __ptext15:	
  2943 ;; *************** function _I2C_init *****************
  2944 ;; Defined at:
  2945 ;;		line 10 in file "./I2C.h"
  2946 ;; Parameters:    Size  Location     Type
  2947 ;;  speed           1    wreg     unsigned char 
  2948 ;; Auto vars:     Size  Location     Type
  2949 ;;  speed           1   13[COMMON] unsigned char 
  2950 ;; Return value:  Size  Location     Type
  2951 ;;                  1    wreg      void 
  2952 ;; Registers used:
  2953 ;;		wreg, status,2, status,0, pclath, cstack
  2954 ;; Tracked objects:
  2955 ;;		On entry : 0/0
  2956 ;;		On exit  : 0/0
  2957 ;;		Unchanged: 0/0
  2958 ;; Data sizes:     COMMON   BANK0   BANK1   BANK3   BANK2
  2959 ;;      Params:         0       0       0       0       0
  2960 ;;      Locals:         1       0       0       0       0
  2961 ;;      Temps:          4       0       0       0       0
  2962 ;;      Totals:         5       0       0       0       0
  2963 ;;Total ram usage:        5 bytes
  2964 ;; Hardware stack levels used:    1
  2965 ;; Hardware stack levels required when called:    1
  2966 ;; This function calls:
  2967 ;;		___aldiv
  2968 ;; This function is called by:
  2969 ;;		_LM75_init
  2970 ;; This function uses a non-reentrant model
  2971 ;;
  2972                           
  2973                           
  2974                           ;psect for function _I2C_init
  2975  0265                     _I2C_init:
  2976                           
  2977                           ;incstack = 0
  2978                           ; Regs used in _I2C_init: [wreg+status,2+status,0+pclath+cstack]
  2979                           ;I2C_init@speed stored from wreg
  2980  0265  00FD               	movwf	I2C_init@speed
  2981  0266                     l1470:
  2982                           
  2983                           ;./I2C.h: 10: void I2C_init(unsigned char speed);./I2C.h: 11: {;./I2C.h: 12:   TRISC3 = 
      +                          1;
  2984  0266  1683               	bsf	3,5	;RP0=1, select bank1
  2985  0267  1303               	bcf	3,6	;RP1=0, select bank1
  2986  0268  1587               	bsf	7,3	;volatile
  2987                           
  2988                           ;./I2C.h: 13:   TRISC4 = 1;
  2989  0269  1607               	bsf	7,4	;volatile
  2990  026A                     l1472:
  2991                           
  2992                           ;./I2C.h: 15:   SSPADD = ((4000000/4000)/speed) - 1;
  2993  026A  087D               	movf	I2C_init@speed,w
  2994  026B  00F9               	movwf	??_I2C_init
  2995  026C  01FA               	clrf	??_I2C_init+1
  2996  026D  01FB               	clrf	??_I2C_init+2
  2997  026E  01FC               	clrf	??_I2C_init+3
  2998  026F  087C               	movf	??_I2C_init+3,w
  2999  0270  00F3               	movwf	___aldiv@divisor+3
  3000  0271  087B               	movf	??_I2C_init+2,w
  3001  0272  00F2               	movwf	___aldiv@divisor+2
  3002  0273  087A               	movf	??_I2C_init+1,w
  3003  0274  00F1               	movwf	___aldiv@divisor+1
  3004  0275  0879               	movf	??_I2C_init,w
  3005  0276  00F0               	movwf	___aldiv@divisor
  3006  0277  3000               	movlw	0
  3007  0278  00F7               	movwf	___aldiv@dividend+3
  3008  0279  3000               	movlw	0
  3009  027A  00F6               	movwf	___aldiv@dividend+2
  3010  027B  3003               	movlw	3
  3011  027C  00F5               	movwf	___aldiv@dividend+1
  3012  027D  30E8               	movlw	232
  3013  027E  00F4               	movwf	___aldiv@dividend
  3014  027F  120A  118A  23FC  120A  118A  	fcall	___aldiv
  3015  0284  0870               	movf	?___aldiv,w
  3016  0285  3EFF               	addlw	255
  3017  0286  1683               	bsf	3,5	;RP0=1, select bank1
  3018  0287  1303               	bcf	3,6	;RP1=0, select bank1
  3019  0288  0093               	movwf	19	;volatile
  3020  0289                     l1474:
  3021                           
  3022                           ;./I2C.h: 16:   SSPSTAT = 0x80;
  3023  0289  3080               	movlw	128
  3024  028A  0094               	movwf	20	;volatile
  3025  028B                     l1476:
  3026                           
  3027                           ;./I2C.h: 17:   SSPCON = 0x28;
  3028  028B  3028               	movlw	40
  3029  028C  1283               	bcf	3,5	;RP0=0, select bank0
  3030  028D  1303               	bcf	3,6	;RP1=0, select bank0
  3031  028E  0094               	movwf	20	;volatile
  3032  028F                     l45:
  3033  028F  0008               	return
  3034  0290                     __end_of_I2C_init:
  3035                           
  3036                           	psect	text16
  3037  03FC                     __ptext16:	
  3038 ;; *************** function ___aldiv *****************
  3039 ;; Defined at:
  3040 ;;		line 5 in file "C:\Program Files\Microchip\xc8\v2.31\pic\sources\c90\common\aldiv.c"
  3041 ;; Parameters:    Size  Location     Type
  3042 ;;  divisor         4    0[COMMON] long 
  3043 ;;  dividend        4    4[COMMON] long 
  3044 ;; Auto vars:     Size  Location     Type
  3045 ;;  quotient        4    2[BANK0 ] long 
  3046 ;;  sign            1    1[BANK0 ] unsigned char 
  3047 ;;  counter         1    0[BANK0 ] unsigned char 
  3048 ;; Return value:  Size  Location     Type
  3049 ;;                  4    0[COMMON] long 
  3050 ;; Registers used:
  3051 ;;		wreg, status,2, status,0
  3052 ;; Tracked objects:
  3053 ;;		On entry : 0/0
  3054 ;;		On exit  : 0/0
  3055 ;;		Unchanged: 0/0
  3056 ;; Data sizes:     COMMON   BANK0   BANK1   BANK3   BANK2
  3057 ;;      Params:         8       0       0       0       0
  3058 ;;      Locals:         0       6       0       0       0
  3059 ;;      Temps:          1       0       0       0       0
  3060 ;;      Totals:         9       6       0       0       0
  3061 ;;Total ram usage:       15 bytes
  3062 ;; Hardware stack levels used:    1
  3063 ;; This function calls:
  3064 ;;		Nothing
  3065 ;; This function is called by:
  3066 ;;		_I2C_init
  3067 ;; This function uses a non-reentrant model
  3068 ;;
  3069                           
  3070                           
  3071                           ;psect for function ___aldiv
  3072  03FC                     ___aldiv:
  3073  03FC                     l1192:	
  3074                           ;incstack = 0
  3075                           ; Regs used in ___aldiv: [wreg+status,2+status,0]
  3076                           
  3077  03FC  1283               	bcf	3,5	;RP0=0, select bank0
  3078  03FD  1303               	bcf	3,6	;RP1=0, select bank0
  3079  03FE  01A1               	clrf	___aldiv@sign
  3080  03FF                     l1194:
  3081  03FF  1FF3               	btfss	___aldiv@divisor+3,7
  3082  0400  2C02               	goto	u1021
  3083  0401  2C03               	goto	u1020
  3084  0402                     u1021:
  3085  0402  2C10               	goto	l309
  3086  0403                     u1020:
  3087  0403                     l1196:
  3088  0403  09F0               	comf	___aldiv@divisor,f
  3089  0404  09F1               	comf	___aldiv@divisor+1,f
  3090  0405  09F2               	comf	___aldiv@divisor+2,f
  3091  0406  09F3               	comf	___aldiv@divisor+3,f
  3092  0407  0AF0               	incf	___aldiv@divisor,f
  3093  0408  1903               	skipnz
  3094  0409  0AF1               	incf	___aldiv@divisor+1,f
  3095  040A  1903               	skipnz
  3096  040B  0AF2               	incf	___aldiv@divisor+2,f
  3097  040C  1903               	skipnz
  3098  040D  0AF3               	incf	___aldiv@divisor+3,f
  3099  040E  01A1               	clrf	___aldiv@sign
  3100  040F  0AA1               	incf	___aldiv@sign,f
  3101  0410                     l309:
  3102  0410  1FF7               	btfss	___aldiv@dividend+3,7
  3103  0411  2C13               	goto	u1031
  3104  0412  2C14               	goto	u1030
  3105  0413                     u1031:
  3106  0413  2C23               	goto	l1202
  3107  0414                     u1030:
  3108  0414                     l1198:
  3109  0414  09F4               	comf	___aldiv@dividend,f
  3110  0415  09F5               	comf	___aldiv@dividend+1,f
  3111  0416  09F6               	comf	___aldiv@dividend+2,f
  3112  0417  09F7               	comf	___aldiv@dividend+3,f
  3113  0418  0AF4               	incf	___aldiv@dividend,f
  3114  0419  1903               	skipnz
  3115  041A  0AF5               	incf	___aldiv@dividend+1,f
  3116  041B  1903               	skipnz
  3117  041C  0AF6               	incf	___aldiv@dividend+2,f
  3118  041D  1903               	skipnz
  3119  041E  0AF7               	incf	___aldiv@dividend+3,f
  3120  041F                     l1200:
  3121  041F  3001               	movlw	1
  3122  0420  00F8               	movwf	??___aldiv
  3123  0421  0878               	movf	??___aldiv,w
  3124  0422  06A1               	xorwf	___aldiv@sign,f
  3125  0423                     l1202:
  3126  0423  3000               	movlw	0
  3127  0424  00A5               	movwf	___aldiv@quotient+3
  3128  0425  3000               	movlw	0
  3129  0426  00A4               	movwf	___aldiv@quotient+2
  3130  0427  3000               	movlw	0
  3131  0428  00A3               	movwf	___aldiv@quotient+1
  3132  0429  3000               	movlw	0
  3133  042A  00A2               	movwf	___aldiv@quotient
  3134  042B                     l1204:
  3135  042B  0873               	movf	___aldiv@divisor+3,w
  3136  042C  0472               	iorwf	___aldiv@divisor+2,w
  3137  042D  0471               	iorwf	___aldiv@divisor+1,w
  3138  042E  0470               	iorwf	___aldiv@divisor,w
  3139  042F  1903               	skipnz
  3140  0430  2C32               	goto	u1041
  3141  0431  2C33               	goto	u1040
  3142  0432                     u1041:
  3143  0432  2C80               	goto	l1224
  3144  0433                     u1040:
  3145  0433                     l1206:
  3146  0433  01A0               	clrf	___aldiv@counter
  3147  0434  0AA0               	incf	___aldiv@counter,f
  3148  0435  2C43               	goto	l1210
  3149  0436                     l1208:
  3150  0436  3001               	movlw	1
  3151  0437  00F8               	movwf	??___aldiv
  3152  0438                     u1055:
  3153  0438  1003               	clrc
  3154  0439  0DF0               	rlf	___aldiv@divisor,f
  3155  043A  0DF1               	rlf	___aldiv@divisor+1,f
  3156  043B  0DF2               	rlf	___aldiv@divisor+2,f
  3157  043C  0DF3               	rlf	___aldiv@divisor+3,f
  3158  043D  0BF8               	decfsz	??___aldiv,f
  3159  043E  2C38               	goto	u1055
  3160  043F  3001               	movlw	1
  3161  0440  00F8               	movwf	??___aldiv
  3162  0441  0878               	movf	??___aldiv,w
  3163  0442  07A0               	addwf	___aldiv@counter,f
  3164  0443                     l1210:
  3165  0443  1FF3               	btfss	___aldiv@divisor+3,7
  3166  0444  2C46               	goto	u1061
  3167  0445  2C47               	goto	u1060
  3168  0446                     u1061:
  3169  0446  2C36               	goto	l1208
  3170  0447                     u1060:
  3171  0447                     l1212:
  3172  0447  3001               	movlw	1
  3173  0448  00F8               	movwf	??___aldiv
  3174  0449                     u1075:
  3175  0449  1003               	clrc
  3176  044A  0DA2               	rlf	___aldiv@quotient,f
  3177  044B  0DA3               	rlf	___aldiv@quotient+1,f
  3178  044C  0DA4               	rlf	___aldiv@quotient+2,f
  3179  044D  0DA5               	rlf	___aldiv@quotient+3,f
  3180  044E  0BF8               	decfsz	??___aldiv,f
  3181  044F  2C49               	goto	u1075
  3182  0450                     l1214:
  3183  0450  0873               	movf	___aldiv@divisor+3,w
  3184  0451  0277               	subwf	___aldiv@dividend+3,w
  3185  0452  1D03               	skipz
  3186  0453  2C5E               	goto	u1085
  3187  0454  0872               	movf	___aldiv@divisor+2,w
  3188  0455  0276               	subwf	___aldiv@dividend+2,w
  3189  0456  1D03               	skipz
  3190  0457  2C5E               	goto	u1085
  3191  0458  0871               	movf	___aldiv@divisor+1,w
  3192  0459  0275               	subwf	___aldiv@dividend+1,w
  3193  045A  1D03               	skipz
  3194  045B  2C5E               	goto	u1085
  3195  045C  0870               	movf	___aldiv@divisor,w
  3196  045D  0274               	subwf	___aldiv@dividend,w
  3197  045E                     u1085:
  3198  045E  1C03               	skipc
  3199  045F  2C61               	goto	u1081
  3200  0460  2C62               	goto	u1080
  3201  0461                     u1081:
  3202  0461  2C71               	goto	l1220
  3203  0462                     u1080:
  3204  0462                     l1216:
  3205  0462  0870               	movf	___aldiv@divisor,w
  3206  0463  02F4               	subwf	___aldiv@dividend,f
  3207  0464  0871               	movf	___aldiv@divisor+1,w
  3208  0465  1C03               	skipc
  3209  0466  0F71               	incfsz	___aldiv@divisor+1,w
  3210  0467  02F5               	subwf	___aldiv@dividend+1,f
  3211  0468  0872               	movf	___aldiv@divisor+2,w
  3212  0469  1C03               	skipc
  3213  046A  0F72               	incfsz	___aldiv@divisor+2,w
  3214  046B  02F6               	subwf	___aldiv@dividend+2,f
  3215  046C  0873               	movf	___aldiv@divisor+3,w
  3216  046D  1C03               	skipc
  3217  046E  0F73               	incfsz	___aldiv@divisor+3,w
  3218  046F  02F7               	subwf	___aldiv@dividend+3,f
  3219  0470                     l1218:
  3220  0470  1422               	bsf	___aldiv@quotient,0
  3221  0471                     l1220:
  3222  0471  3001               	movlw	1
  3223  0472                     u1095:
  3224  0472  1003               	clrc
  3225  0473  0CF3               	rrf	___aldiv@divisor+3,f
  3226  0474  0CF2               	rrf	___aldiv@divisor+2,f
  3227  0475  0CF1               	rrf	___aldiv@divisor+1,f
  3228  0476  0CF0               	rrf	___aldiv@divisor,f
  3229  0477  3EFF               	addlw	-1
  3230  0478  1D03               	skipz
  3231  0479  2C72               	goto	u1095
  3232  047A                     l1222:
  3233  047A  3001               	movlw	1
  3234  047B  02A0               	subwf	___aldiv@counter,f
  3235  047C  1D03               	btfss	3,2
  3236  047D  2C7F               	goto	u1101
  3237  047E  2C80               	goto	u1100
  3238  047F                     u1101:
  3239  047F  2C47               	goto	l1212
  3240  0480                     u1100:
  3241  0480                     l1224:
  3242  0480  0821               	movf	___aldiv@sign,w
  3243  0481  1903               	btfsc	3,2
  3244  0482  2C84               	goto	u1111
  3245  0483  2C85               	goto	u1110
  3246  0484                     u1111:
  3247  0484  2C90               	goto	l1228
  3248  0485                     u1110:
  3249  0485                     l1226:
  3250  0485  09A2               	comf	___aldiv@quotient,f
  3251  0486  09A3               	comf	___aldiv@quotient+1,f
  3252  0487  09A4               	comf	___aldiv@quotient+2,f
  3253  0488  09A5               	comf	___aldiv@quotient+3,f
  3254  0489  0AA2               	incf	___aldiv@quotient,f
  3255  048A  1903               	skipnz
  3256  048B  0AA3               	incf	___aldiv@quotient+1,f
  3257  048C  1903               	skipnz
  3258  048D  0AA4               	incf	___aldiv@quotient+2,f
  3259  048E  1903               	skipnz
  3260  048F  0AA5               	incf	___aldiv@quotient+3,f
  3261  0490                     l1228:
  3262  0490  0825               	movf	___aldiv@quotient+3,w
  3263  0491  00F3               	movwf	?___aldiv+3
  3264  0492  0824               	movf	___aldiv@quotient+2,w
  3265  0493  00F2               	movwf	?___aldiv+2
  3266  0494  0823               	movf	___aldiv@quotient+1,w
  3267  0495  00F1               	movwf	?___aldiv+1
  3268  0496  0822               	movf	___aldiv@quotient,w
  3269  0497  00F0               	movwf	?___aldiv
  3270  0498                     l319:
  3271  0498  0008               	return
  3272  0499                     __end_of___aldiv:
  3273  007E                     btemp	set	126	;btemp
  3274  007E                     wtemp0	set	126
  3275                           
  3276                           	psect	config
  3277                           
  3278                           ;Config register CONFIG1 @ 0x2007
  3279                           ;	Oscillator Selection bits
  3280                           ;	FOSC = INTRC_CLKOUT, INTOSC oscillator: CLKOUT function on RA6/OSC2/CLKOUT pin, I/O fu
      +                          nction on RA7/OSC1/CLKIN
  3281                           ;	Watchdog Timer Enable bit
  3282                           ;	WDTE = OFF, WDT disabled and can be enabled by SWDTEN bit of the WDTCON register
  3283                           ;	Power-up Timer Enable bit
  3284                           ;	PWRTE = OFF, PWRT disabled
  3285                           ;	RE3/MCLR pin function select bit
  3286                           ;	MCLRE = OFF, RE3/MCLR pin function is digital input, MCLR internally tied to VDD
  3287                           ;	Code Protection bit
  3288                           ;	CP = OFF, Program memory code protection is disabled
  3289                           ;	Data Code Protection bit
  3290                           ;	CPD = OFF, Data memory code protection is disabled
  3291                           ;	Brown Out Reset Selection bits
  3292                           ;	BOREN = OFF, BOR disabled
  3293                           ;	Internal External Switchover bit
  3294                           ;	IESO = OFF, Internal/External Switchover mode is disabled
  3295                           ;	Fail-Safe Clock Monitor Enabled bit
  3296                           ;	FCMEN = OFF, Fail-Safe Clock Monitor is disabled
  3297                           ;	Low Voltage Programming Enable bit
  3298                           ;	LVP = OFF, RB3 pin has digital I/O, HV on MCLR must be used for programming
  3299                           ;	In-Circuit Debugger Mode bit
  3300                           ;	DEBUG = 0x1, unprogrammed default
  3301  2007                     	org	8199
  3302  2007  20D5               	dw	8405
  3303                           
  3304                           ;Config register CONFIG2 @ 0x2008
  3305                           ;	Brown-out Reset Selection bit
  3306                           ;	BOR4V = BOR40V, Brown-out Reset set to 4.0V
  3307                           ;	Flash Program Memory Self Write Enable bits
  3308                           ;	WRT = OFF, Write protection off
  3309  2008                     	org	8200
  3310  2008  3FFF               	dw	16383

Data Sizes:
    Strings     0
    Constant    0
    Data        0
    BSS         15
    Persistent  0
    Stack       0

Auto Spaces:
    Space          Size  Autos    Used
    COMMON           14     14      14
    BANK0            80     44      59
    BANK1            80      0       0
    BANK3            96      0       0
    BANK2            96      0       0

Pointer List with Targets:

    None.

Critical Paths under _main in COMMON

    _toFloat->___xxtofl
    _I2C_read->_I2C_ack
    _LM75_init->_I2C_init
    _LM75_set->_I2C_write
    _I2C_init->___aldiv

Critical Paths under _main in BANK0

    _main->___fltol
    ___fltol->_LM75_read
    _LM75_read->_toFloat
    _toFloat->___fladd
    _I2C_init->___aldiv

Critical Paths under _main in BANK1

    None.

Critical Paths under _main in BANK3

    None.

Critical Paths under _main in BANK2

    None.

Call Graph Tables:

 ---------------------------------------------------------------------------------
 (Depth) Function   	        Calls       Base Space   Used Autos Params    Refs
 ---------------------------------------------------------------------------------
 (0) _main                                                 3     3      0    4002
                                             41 BANK0      3     3      0
                          _LM75_init
                          _LM75_read
                            ___fltol
                              _setup
 ---------------------------------------------------------------------------------
 (1) _setup                                                0     0      0       0
 ---------------------------------------------------------------------------------
 (1) ___fltol                                             11     7      4     305
                                             30 BANK0     11     7      4
                          _LM75_read (ARG)
 ---------------------------------------------------------------------------------
 (1) _LM75_read                                           11     7      4    2983
                                             19 BANK0     11     7      4
                           _I2C_read
                        _I2C_restart
                          _I2C_start
                           _I2C_stop
                          _I2C_write
                            _toFloat
 ---------------------------------------------------------------------------------
 (2) _toFloat                                             11     7      4    2849
                                              8 BANK0     11     7      4
                            ___fladd
                           ___xxtofl
 ---------------------------------------------------------------------------------
 (3) ___xxtofl                                            14    10      4     398
                                              0 COMMON    14    10      4
 ---------------------------------------------------------------------------------
 (3) ___fladd                                             20    12      8    2262
                                              0 COMMON    12     4      8
                                              0 BANK0      8     8      0
 ---------------------------------------------------------------------------------
 (2) _I2C_restart                                          0     0      0       0
 ---------------------------------------------------------------------------------
 (2) _I2C_read                                             1     1      0      44
                                              1 COMMON     1     1      0
                            _I2C_ack
 ---------------------------------------------------------------------------------
 (3) _I2C_ack                                              1     1      0      22
                                              0 COMMON     1     1      0
 ---------------------------------------------------------------------------------
 (1) _LM75_init                                            0     0      0     714
                           _I2C_init
                           _LM75_set
 ---------------------------------------------------------------------------------
 (2) _LM75_set                                             3     1      2     240
                                              1 COMMON     3     1      2
                          _I2C_start
                           _I2C_stop
                          _I2C_write
 ---------------------------------------------------------------------------------
 (2) _I2C_write                                            1     1      0      22
                                              0 COMMON     1     1      0
 ---------------------------------------------------------------------------------
 (2) _I2C_stop                                             0     0      0       0
 ---------------------------------------------------------------------------------
 (2) _I2C_start                                            0     0      0       0
 ---------------------------------------------------------------------------------
 (2) _I2C_init                                             5     5      0     474
                                              9 COMMON     5     5      0
                            ___aldiv
 ---------------------------------------------------------------------------------
 (3) ___aldiv                                             15     7      8     452
                                              0 COMMON     9     1      8
                                              0 BANK0      6     6      0
 ---------------------------------------------------------------------------------
 Estimated maximum stack depth 3
 ---------------------------------------------------------------------------------

 Call Graph Graphs:

 _main (ROOT)
   _LM75_init
     _I2C_init
       ___aldiv
     _LM75_set
       _I2C_start
       _I2C_stop
       _I2C_write
   _LM75_read
     _I2C_read
       _I2C_ack
     _I2C_restart
     _I2C_start
     _I2C_stop
     _I2C_write
     _toFloat
       ___fladd
       ___xxtofl
   ___fltol
     _LM75_read (ARG)
       _I2C_read
         _I2C_ack
       _I2C_restart
       _I2C_start
       _I2C_stop
       _I2C_write
       _toFloat
         ___fladd
         ___xxtofl
   _setup

 Address spaces:
Name               Size   Autos  Total    Cost      Usage
BITCOMMON            E      0       0       0        0.0%
EEDATA             100      0       0       0        0.0%
NULL                 0      0       0       0        0.0%
CODE                 0      0       0       0        0.0%
COMMON               E      E       E       1      100.0%
BITSFR0              0      0       0       1        0.0%
SFR0                 0      0       0       1        0.0%
BITSFR1              0      0       0       2        0.0%
SFR1                 0      0       0       2        0.0%
STACK                0      0       0       2        0.0%
ABS                  0      0      49       3        0.0%
BITBANK0            50      0       0       4        0.0%
BITSFR3              0      0       0       4        0.0%
SFR3                 0      0       0       4        0.0%
BANK0               50     2C      3B       5       73.8%
BITSFR2              0      0       0       5        0.0%
SFR2                 0      0       0       5        0.0%
BITBANK1            50      0       0       6        0.0%
BANK1               50      0       0       7        0.0%
BITBANK3            60      0       0       8        0.0%
BANK3               60      0       0       9        0.0%
BITBANK2            60      0       0      10        0.0%
BANK2               60      0       0      11        0.0%
DATA                 0      0      49      12        0.0%


Microchip Technology PIC Macro Assembler V2.31 build 20201012212115 
Symbol Table                                                                                   Fri Mar 05 00:34:31 2021

                     l50 01DE                       l51 01DF                       l60 01E3  
                     l45 028F                       l62 01E8                       l54 01ED  
                     l63 01E9                       l48 01D9                       l72 01F9  
                     l80 021B                       l56 01F2                       l81 0225  
                     l57 01F3                       l74 01FD                       l66 020B  
                     l90 037F                       l75 01FE                       l68 0210  
                     l69 0211                       l78 0216                       l87 0240  
                     l99 0264       __size_of_I2C_start 000A       __size_of_I2C_write 000B  
                    l103 031C                      l108 01D5                      l309 0410  
                    l430 03FB                      l319 0498                      l440 03FB  
                    l541 065F                      l437 03E6                      l550 07EA  
                    l543 0634                      l537 05B6                      l562 0756  
                    l571 07B8                      l580 07EA                      l558 0730  
                    l568 0778                      l690 051C                      l579 07DC  
                    l691 0528                      l683 0500                      l677 04BB  
                    l679 0552                      _PEN 048A                      _SEN 0488  
                    u960 01DE                      u961 01DD                      u970 01E8  
                    u971 01E7                      u980 0207                      u981 0203  
                    u994 020A                      _R_W 04A2                      _out 004C  
        __end_of_I2C_ack 0212      I2C_read@acknowledge 0071             ___fltol@exp1 0048  
                   l1200 041F                     l1210 0443                     l1202 0423  
                   l1220 0471                     l1212 0447                     l1204 042B  
                   l1300 05EC                     l1222 047A                     l1214 0450  
                   l1206 0433                     l1302 05F0                     l1310 0600  
                   l1216 0462                     l1208 0436                     l1224 0480  
                   l1400 0782                     l1320 0645                     l1312 0601  
                   l1304 05F4                     l1240 0565                     l1232 0553  
                   l1226 0485                     l1218 0470                     l1410 07C2  
                   l1402 0790                     l1330 0663                     l1322 0649  
                   l1314 0618                     l1306 05F8                     l1242 056A  
                   l1250 057A                     l1234 055A                     l1228 0490  
                   l1420 07D6                     l1412 07CA                     l1404 0794  
                   l1340 068C                     l1332 0668                     l1324 064A  
                   l1316 0638                     l1308 05FC                     l1260 0594  
                   l1252 0582                     l1244 056F                     l1236 0560  
                   l1500 02EB                     l1190 01F5                     l1510 0226  
                   l1422 07E5                     l1414 07CF                     l1406 07B4  
                   l1350 06A2                     l1342 0690                     l1326 0655  
                   l1318 0643                     l1270 05AB                     l1262 0598  
                   l1254 0587                     l1246 0577                     l1238 0564  
                   l1430 04A3                     l1502 02F0                     l1192 03FC  
                   l1184 01D6                     l1424 07E9                     l1416 07D0  
                   l1408 07BD                     l1360 070E                     l1352 06AD  
                   l1344 069B                     l1336 0671                     l1328 0659  
                   l1280 05C4                     l1272 05AC                     l1264 0599  
                   l1256 058D                     l1248 0578                     l1440 04D1  
                   l1432 04B3                     l1504 02F5                     l1520 033E  
                   l1512 0320                     l1096 01CF                     l1194 03FF  
                   l1186 01E0                     l1418 07D4                     l1362 0713  
                   l1346 069D                     l1338 0688                     l1354 06B2  
                   l1290 05D8                     l1282 05C8                     l1266 059E  
                   l1274 05AE                     l1258 058E                     l1450 0507  
                   l1442 04DE                     l1434 04C3                     l1426 049A  
                   l1506 0314                     l1522 034C                     l1514 0325  
                   l1530 0380                     l1196 0403                     l1188 0200  
                   l1380 075D                     l1372 0746                     l1356 06C8  
                   l1364 0722                     l1348 06A1                     l1292 05DC  
                   l1284 05CC                     l1276 05BC                     l1268 05A3  
                   l1460 0540                     l1452 0512                     l1444 04E5  
                   l1428 049F                     l1524 035A                     l1516 032B  
                   l1540 03AC                     l1532 038D                     l1198 0414  
                   l1470 0266                     l1390 076B                     l1382 075F  
                   l1374 0751                     l1366 0738                     l1358 0708  
                   l1294 05E0                     l1286 05D0                     l1278 05C0  
                   l1462 0545                     l1454 0516                     l1446 04E9  
                   l1438 04CC                     l1526 035F                     l1518 0338  
                   l1542 03B4                     l1472 026A                     l1480 0213  
                   l1392 076F                     l1384 0764                     l1376 0755  
                   l1368 073D                     l1296 05E4                     l1288 05D4  
                   l1464 0549                     l1456 0520                     l1448 04F7  
                   l1560 03DB                     l1552 03C2                     l1544 03B6  
                   l1536 0396                     l1474 0289                     l1490 0247  
                   l1482 021C                     l1394 0775                     l1378 075A  
                   l1386 0766                     l1298 05E8                     l1466 054A  
                   l1458 052A                     l1562 03EB                     l1546 03BA  
                   l1554 03D4                     l1538 03AB                     l1476 028B  
                   l1492 024D                     l1484 0222                     l1388 076A  
                   l1564 03F0                     l1494 0253                     l1478 01EA  
                   l1398 077D                     l1590 0295                     l1496 0259  
                   l1488 0242                     l1592 029A                     l1498 02C5  
                   l1594 02B3                     l1588 0290                     u1000 0210  
                   u1001 020F                     u1010 01FD                     u1011 01FC  
                   u1100 0480                     u1020 0403                     u1101 047F  
                   u1021 0402                     u1110 0485                     u1030 0414  
                   u1111 0484                     u1031 0413                     u1040 0433  
                   u1200 05C0                     u1120 0564                     u1041 0432  
                   u1201 05BF                     u1121 0563                     u1210 0618  
                   u1130 056A                     u1211 0617                     u1131 0569  
                   u1060 0447                     u1220 0621                     u1140 056F  
                   u1061 0446                     u1301 067A                     u1221 061F  
                   u1141 056E                     u1310 068C                     u1302 0681  
                   u1230 0622                     u1150 058D                     u1055 0438  
                   u1311 068B                     u1303 0688                     u1215 0614  
                   u1151 058C                     u1080 0462                     u1400 073D  
                   u1320 0690                     u1240 0638                     u1160 0598  
                   u1081 0461                     u1401 073C                     u1321 068F  
                   u1241 0637                     u1161 0597                     u1330 06A1  
                   u1250 0649                     u1170 059E                     u1075 0449  
                   u1331 06A0                     u1251 0648                     u1171 059D  
                   u1500 0794                     u1420 0755                     u1180 05A3  
                   u1085 045E                     u1501 0793                     u1421 0754  
                   u1181 05A2                     u1510 07A5                     u1430 075A  
                   u1350 06C8                     u1270 065F                     u1190 05BC  
                   u1095 0472                     u1431 0759                     u1415 074A  
                   u1351 06C7                     u1271 065E                     u1191 05BB  
                   u1520 07B4                     u1440 0764                     u1280 0663  
                   u1600 04C3                     u1521 07B3                     u1441 0763  
                   u1361 06E1                     u1353 06C4                     u1345 06A6  
                   u1281 0662                     u1265 064E                     u1601 04C2  
                   u1530 07BD                     u1450 076A                     u1370 06F5  
                   u1362 06E2                     u1290 0668                     u1531 07BC  
                   u1515 07A0                     u1451 0769                     u1371 06F6  
                   u1363 06E7                     u1291 0667                     u1540 07C2  
                   u1460 076F                     u1380 0713                     u1372 06FB  
                   u1364 06E8                     u1700 0545                     u1620 04E4  
                   u1541 07C1                     u1461 076E                     u1381 0712  
                   u1373 06FC                     u1365 06ED                     u1701 0544  
                   u1621 04E3                     u1550 07CF                     u1470 0775  
                   u1390 0738                     u1366 06EE                     u1710 0549  
                   u1551 07CE                     u1471 0774                     u1391 0737  
                   u1711 0548                     u1615 04D6                     u1720 01F2  
                   u1560 07D4                     u1480 077C                     u1640 0506  
                   u1721 01F1                     u1561 07D3                     u1481 077B  
                   u1641 0505                     u1730 021B                     u1570 07E9  
                   u1490 0782                     u1810 03D3                     u1731 021A  
                   u1571 07E8                     u1491 0781                     u1635 04F8  
                   u1811 03D2                     u1660 0516                     u1580 049F  
                   u1820 03DA                     u1661 0515                     u1581 049E  
                   u1821 03D9                     u1805 03C3                     u1670 051C  
                   u1590 04A3                     u1750 02F5                     u1671 051B  
                   u1655 050B                     u1591 04A2                     u1751 02F4  
                   u1680 0520                     u1840 03EB                     u1760 038D  
                   u1681 051F                     u1745 02CD                     u1841 03EA  
                   u1761 038C                     u1690 0535                     u1850 03F0  
                   u1770 03A4                     u1851 03EF                     u1835 03DD  
                   u1780 03BA                     u1781 03B9                     u1790 03C1  
                   u1695 0530                     u1791 03C0                     u1775 039F  
                   u1867 02BB                     _RCEN 048B                     _RSEN 0489  
     __size_of_LM75_init 001B       __size_of_LM75_read 0063                     _TRMT 04C1  
                   _main 0290                     btemp 007E         __end_of_I2C_init 0290  
       __end_of_I2C_read 0226                     start 0000         __end_of_I2C_stop 01EA  
   __size_of_I2C_restart 000A         __end_of_LM75_set 0265            I2C_write@data 0070  
          ___fltol@sign1 0047          __end_of___aldiv 0499          __end_of___fladd 07EB  
                  ?_main 0070                    _ACKEN 048C                    _ACKDT 048D  
        __end_of___fltol 03FC                    _SPBRG 0099                    _PORTB 0006  
                  _TRISB 0086                    _SSPIF 0063                    _TXREG 0019  
                  _setup 01CF          __end_of_toFloat 031D                    status 0003  
      __end_of_I2C_start 01E0                    wtemp0 007E        __end_of_I2C_write 01FF  
        __initialization 07EB             __end_of_main 02C5                ??_I2C_ack 0070  
      __end_of_LM75_init 0241        __end_of_LM75_read 0380                   ??_main 0049  
                 ?_setup 0070                   _SSPADD 0093                   _TRISC3 043B  
                 _TRISC4 043C                   _SSPCON 0014                   _SSPBUF 0013  
       __end_of___xxtofl 0553        toFloat@isfraction 002E            toFloat@result 002F  
              ??___aldiv 0078                ??___fladd 0020                ??___fltol 0042  
     I2C_ack@acknowledge 0070                ??_toFloat 002C                ?_I2C_init 0070  
              ?_I2C_read 0070                ?_I2C_stop 0070                ?_LM75_set 0071  
           ___xxtofl@arg 007A             ___xxtofl@exp 0079             ___xxtofl@val 0070  
__end_of__initialization 07FC               ___fltol@f1 003E           __pcstackCOMMON 0070  
          __end_of_setup 01D6               ??_I2C_init 0079               ??_I2C_read 0071  
             ??_I2C_stop 0070                  ??_setup 0070               __pbssBANK0 004C  
             ??_LM75_set 0073               __pmaintext 0290                  _ACKSTAT 048E  
                _I2C_ack 01FF                ?___xxtofl 0070                  _SSPCON2 0091  
                _SSPSTAT 0094            ??_I2C_restart 0070                _I2C_start 01D6  
              _I2C_write 01F4                  ___aldiv 03FC                  ___fladd 0553  
                ___fltol 0380       LM75_set@regAddress 0073                  __ptext1 01CF  
                __ptext2 0380                  __ptext3 031D                  __ptext4 02C5  
                __ptext5 0499                  __ptext6 0553                  __ptext7 01EA  
                __ptext8 0212                  __ptext9 01FF               ??___xxtofl 0074  
              _LM75_init 0226                _LM75_read 031D                  _toFloat 02C5  
       ___aldiv@dividend 0074     end_of_initialization 07FC               ?_I2C_start 0070  
             ?_I2C_write 0070                _RCSTAbits 0018         ___aldiv@quotient 0022  
    __end_of_I2C_restart 01F4              ___fladd@grs 007B               ?_LM75_init 0070  
             ?_LM75_read 0033            ___xxtofl@sign 0078                _TRISCbits 0087  
      __size_of_I2C_init 002B        __size_of_I2C_read 0014        __size_of_I2C_stop 000A  
              _TXSTAbits 0098        __size_of_LM75_set 0024              _BAUDCTLbits 0187  
    start_initialization 07EB              _I2C_restart 01EA              ??_I2C_start 0070  
            ??_I2C_write 0070             toFloat@tempr 0028                 ?_I2C_ack 0070  
              ___fladd@a 0074                ___fladd@b 0070              ??_LM75_init 007E  
            ??_LM75_read 0037                ___latbits 0002            __pcstackBANK0 0020  
      __size_of___xxtofl 00BA                 ?___aldiv 0070                 ?___fladd 0070  
               ?___fltol 003E                 ?_toFloat 0028                 _I2C_init 0265  
               _I2C_read 0212                 _I2C_stop 01E0           __size_of_setup 0007  
               _LM75_set 0241          ___aldiv@divisor 0070          ___aldiv@counter 0020  
               _PIE1bits 008C         __size_of_I2C_ack 0013      LM75_read@regAddress 003D  
       __size_of___aldiv 009D         __size_of___fladd 0298         __size_of___fltol 007C  
               ___xxtofl 0499         __size_of_toFloat 0058                 __ptext10 0226  
               __ptext11 0241                 __ptext12 01F4                 __ptext13 01E0  
               __ptext14 01D6                 __ptext15 0265                 __ptext16 03FC  
          __size_of_main 0035             ?_I2C_restart 0070               _INTCONbits 000B  
          I2C_init@speed 007D             ___aldiv@sign 0021            ___fladd@signs 0078  
           LM75_read@LSB 003B             LM75_read@MSB 0039             ___fladd@aexp 0079  
           ___fladd@bexp 007A             LM75_set@data 0071  
