

Microchip MPLAB XC8 Assembler V2.31 build 20201012212115 
                                                                                               Thu Feb 18 22:37:23 2021

Microchip MPLAB XC8 C Compiler v2.31 (Free license) build 20201012212115 Og1 
     1                           	processor	16F887
     2                           	pagewidth 120
     3                           	opt	flic
     4                           	psect	nvCOMMON,global,class=COMMON,space=1,delta=1,noexec
     5                           	psect	cinit,global,class=CODE,merge=1,delta=2
     6                           	psect	bssCOMMON,global,class=COMMON,space=1,delta=1,noexec
     7                           	psect	bssBANK0,global,class=BANK0,space=1,delta=1,noexec
     8                           	psect	cstackCOMMON,global,class=COMMON,space=1,delta=1,noexec
     9                           	psect	cstackBANK0,global,class=BANK0,space=1,delta=1,noexec
    10                           	psect	maintext,global,class=CODE,split=1,delta=2
    11                           	psect	text1,local,class=CODE,merge=1,delta=2
    12                           	psect	text2,local,class=CODE,merge=1,delta=2,group=1
    13                           	psect	text3,local,class=CODE,merge=1,delta=2,group=1
    14                           	psect	text4,local,class=CODE,merge=1,delta=2,group=1
    15                           	psect	text5,local,class=CODE,merge=1,delta=2,group=1
    16                           	psect	text6,local,class=CODE,merge=1,delta=2
    17                           	psect	text7,local,class=CODE,merge=1,delta=2
    18                           	psect	intentry,global,class=CODE,delta=2
    19                           	psect	config,global,abs,ovrld,class=CONFIG,space=4,delta=2,noexec
    20                           	dabs	1,0x7E,2
    21  0000                     
    22                           ; Version 2.20
    23                           ; Generated 12/02/2020 GMT
    24                           ; 
    25                           ; Copyright © 2020, Microchip Technology Inc. and its subsidiaries ("Microchip")
    26                           ; All rights reserved.
    27                           ; 
    28                           ; This software is developed by Microchip Technology Inc. and its subsidiaries ("Microch
      +                          ip").
    29                           ; 
    30                           ; Redistribution and use in source and binary forms, with or without modification, are
    31                           ; permitted provided that the following conditions are met:
    32                           ; 
    33                           ;     1. Redistributions of source code must retain the above copyright notice, this lis
      +                          t of
    34                           ;        conditions and the following disclaimer.
    35                           ; 
    36                           ;     2. Redistributions in binary form must reproduce the above copyright notice, this 
      +                          list
    37                           ;        of conditions and the following disclaimer in the documentation and/or other
    38                           ;        materials provided with the distribution.
    39                           ; 
    40                           ;     3. Microchip's name may not be used to endorse or promote products derived from th
      +                          is
    41                           ;        software without specific prior written permission.
    42                           ; 
    43                           ; THIS SOFTWARE IS PROVIDED BY MICROCHIP "AS IS" AND ANY EXPRESS OR IMPLIED WARRANTIES,
    44                           ; INCLUDING, BUT NOT LIMITED TO, THE IMPLIED WARRANTIES OF MERCHANTABILITY AND FITNESS F
      +                          OR
    45                           ; PURPOSE ARE DISCLAIMED.  IN NO EVENT SHALL MICROCHIP BE LIABLE FOR ANY DIRECT, INDIREC
      +                          T,
    46                           ; INCIDENTAL, SPECIAL, EXEMPLARY, OR CONSEQUENTIAL DAMAGES (INCLUDING BUT NOT LIMITED TO
    47                           ; PROCUREMENT OF SUBSTITUTE GOODS OR SERVICES; LOSS OF USE, DATA OR PROFITS; OR BUSINESS
    48                           ; INTERRUPTION) HOWSOEVER CAUSED AND ON ANY THEORY OF LIABILITY, WHETHER IN CONTRACT, ST
      +                          RICT
    49                           ; LIABILITY, OR TORT (INCLUDING NEGLIGENCE OR OTHERWISE) ARISING IN ANY WAY OUT OF THE U
      +                          SE OF
    50                           ; THIS SOFTWARE, EVEN IF ADVISED OF THE POSSIBILITY OF SUCH DAMAGE.
    51                           ; 
    52                           ; 
    53                           ; Code-generator required, PIC16F887 Definitions
    54                           ; 
    55                           ; SFR Addresses
    56  0000                     	;# 
    57  0001                     	;# 
    58  0002                     	;# 
    59  0003                     	;# 
    60  0004                     	;# 
    61  0005                     	;# 
    62  0006                     	;# 
    63  0007                     	;# 
    64  0008                     	;# 
    65  0009                     	;# 
    66  000A                     	;# 
    67  000B                     	;# 
    68  000C                     	;# 
    69  000D                     	;# 
    70  000E                     	;# 
    71  000E                     	;# 
    72  000F                     	;# 
    73  0010                     	;# 
    74  0011                     	;# 
    75  0012                     	;# 
    76  0013                     	;# 
    77  0014                     	;# 
    78  0015                     	;# 
    79  0015                     	;# 
    80  0016                     	;# 
    81  0017                     	;# 
    82  0018                     	;# 
    83  0019                     	;# 
    84  001A                     	;# 
    85  001B                     	;# 
    86  001B                     	;# 
    87  001C                     	;# 
    88  001D                     	;# 
    89  001E                     	;# 
    90  001F                     	;# 
    91  0081                     	;# 
    92  0085                     	;# 
    93  0086                     	;# 
    94  0087                     	;# 
    95  0088                     	;# 
    96  0089                     	;# 
    97  008C                     	;# 
    98  008D                     	;# 
    99  008E                     	;# 
   100  008F                     	;# 
   101  0090                     	;# 
   102  0091                     	;# 
   103  0092                     	;# 
   104  0093                     	;# 
   105  0093                     	;# 
   106  0093                     	;# 
   107  0094                     	;# 
   108  0095                     	;# 
   109  0096                     	;# 
   110  0097                     	;# 
   111  0098                     	;# 
   112  0099                     	;# 
   113  009A                     	;# 
   114  009B                     	;# 
   115  009C                     	;# 
   116  009D                     	;# 
   117  009E                     	;# 
   118  009F                     	;# 
   119  0105                     	;# 
   120  0107                     	;# 
   121  0108                     	;# 
   122  0109                     	;# 
   123  010C                     	;# 
   124  010C                     	;# 
   125  010D                     	;# 
   126  010E                     	;# 
   127  010F                     	;# 
   128  0185                     	;# 
   129  0187                     	;# 
   130  0188                     	;# 
   131  0189                     	;# 
   132  018C                     	;# 
   133  018D                     	;# 
   134  0000                     	;# 
   135  0001                     	;# 
   136  0002                     	;# 
   137  0003                     	;# 
   138  0004                     	;# 
   139  0005                     	;# 
   140  0006                     	;# 
   141  0007                     	;# 
   142  0008                     	;# 
   143  0009                     	;# 
   144  000A                     	;# 
   145  000B                     	;# 
   146  000C                     	;# 
   147  000D                     	;# 
   148  000E                     	;# 
   149  000E                     	;# 
   150  000F                     	;# 
   151  0010                     	;# 
   152  0011                     	;# 
   153  0012                     	;# 
   154  0013                     	;# 
   155  0014                     	;# 
   156  0015                     	;# 
   157  0015                     	;# 
   158  0016                     	;# 
   159  0017                     	;# 
   160  0018                     	;# 
   161  0019                     	;# 
   162  001A                     	;# 
   163  001B                     	;# 
   164  001B                     	;# 
   165  001C                     	;# 
   166  001D                     	;# 
   167  001E                     	;# 
   168  001F                     	;# 
   169  0081                     	;# 
   170  0085                     	;# 
   171  0086                     	;# 
   172  0087                     	;# 
   173  0088                     	;# 
   174  0089                     	;# 
   175  008C                     	;# 
   176  008D                     	;# 
   177  008E                     	;# 
   178  008F                     	;# 
   179  0090                     	;# 
   180  0091                     	;# 
   181  0092                     	;# 
   182  0093                     	;# 
   183  0093                     	;# 
   184  0093                     	;# 
   185  0094                     	;# 
   186  0095                     	;# 
   187  0096                     	;# 
   188  0097                     	;# 
   189  0098                     	;# 
   190  0099                     	;# 
   191  009A                     	;# 
   192  009B                     	;# 
   193  009C                     	;# 
   194  009D                     	;# 
   195  009E                     	;# 
   196  009F                     	;# 
   197  0105                     	;# 
   198  0107                     	;# 
   199  0108                     	;# 
   200  0109                     	;# 
   201  010C                     	;# 
   202  010C                     	;# 
   203  010D                     	;# 
   204  010E                     	;# 
   205  010F                     	;# 
   206  0185                     	;# 
   207  0187                     	;# 
   208  0188                     	;# 
   209  0189                     	;# 
   210  018C                     	;# 
   211  018D                     	;# 
   212  0000                     	;# 
   213  0001                     	;# 
   214  0002                     	;# 
   215  0003                     	;# 
   216  0004                     	;# 
   217  0005                     	;# 
   218  0006                     	;# 
   219  0007                     	;# 
   220  0008                     	;# 
   221  0009                     	;# 
   222  000A                     	;# 
   223  000B                     	;# 
   224  000C                     	;# 
   225  000D                     	;# 
   226  000E                     	;# 
   227  000E                     	;# 
   228  000F                     	;# 
   229  0010                     	;# 
   230  0011                     	;# 
   231  0012                     	;# 
   232  0013                     	;# 
   233  0014                     	;# 
   234  0015                     	;# 
   235  0015                     	;# 
   236  0016                     	;# 
   237  0017                     	;# 
   238  0018                     	;# 
   239  0019                     	;# 
   240  001A                     	;# 
   241  001B                     	;# 
   242  001B                     	;# 
   243  001C                     	;# 
   244  001D                     	;# 
   245  001E                     	;# 
   246  001F                     	;# 
   247  0081                     	;# 
   248  0085                     	;# 
   249  0086                     	;# 
   250  0087                     	;# 
   251  0088                     	;# 
   252  0089                     	;# 
   253  008C                     	;# 
   254  008D                     	;# 
   255  008E                     	;# 
   256  008F                     	;# 
   257  0090                     	;# 
   258  0091                     	;# 
   259  0092                     	;# 
   260  0093                     	;# 
   261  0093                     	;# 
   262  0093                     	;# 
   263  0094                     	;# 
   264  0095                     	;# 
   265  0096                     	;# 
   266  0097                     	;# 
   267  0098                     	;# 
   268  0099                     	;# 
   269  009A                     	;# 
   270  009B                     	;# 
   271  009C                     	;# 
   272  009D                     	;# 
   273  009E                     	;# 
   274  009F                     	;# 
   275  0105                     	;# 
   276  0107                     	;# 
   277  0108                     	;# 
   278  0109                     	;# 
   279  010C                     	;# 
   280  010C                     	;# 
   281  010D                     	;# 
   282  010E                     	;# 
   283  010F                     	;# 
   284  0185                     	;# 
   285  0187                     	;# 
   286  0188                     	;# 
   287  0189                     	;# 
   288  018C                     	;# 
   289  018D                     	;# 
   290                           
   291                           	psect	nvCOMMON
   292  0079                     __pnvCOMMON:
   293  0079                     _banderaLM:
   294  0079                     	ds	1
   295  001F                     _ADCON0bits	set	31
   296  001F                     _ADCON0	set	31
   297  0008                     _PORTDbits	set	8
   298  001E                     _ADRESH	set	30
   299  000C                     _PIR1bits	set	12
   300  0009                     _PORTEbits	set	9
   301  000B                     _INTCON	set	11
   302  008C                     _PIE1bits	set	140
   303  009F                     _ADCON1bits	set	159
   304  0096                     _IOCBbits	set	150
   305  0189                     _ANSELH	set	393
   306  0188                     _ANSEL	set	392
   307                           
   308                           	psect	cinit
   309  000F                     start_initialization:	
   310                           ; #config settings
   311                           
   312  000F                     __initialization:
   313                           
   314                           ; Clear objects allocated to COMMON
   315  000F  01F7               	clrf	__pbssCOMMON& (0+127)
   316  0010  01F8               	clrf	(__pbssCOMMON+1)& (0+127)
   317                           
   318                           ; Clear objects allocated to BANK0
   319  0011  1283               	bcf	3,5	;RP0=0, select bank0
   320  0012  1303               	bcf	3,6	;RP1=0, select bank0
   321  0013  01C8               	clrf	__pbssBANK0& (0+127)
   322  0014  01C9               	clrf	(__pbssBANK0+1)& (0+127)
   323  0015  01CA               	clrf	(__pbssBANK0+2)& (0+127)
   324  0016  01CB               	clrf	(__pbssBANK0+3)& (0+127)
   325  0017                     end_of_initialization:	
   326                           ;End of C runtime variable initialization code
   327                           
   328  0017                     __end_of__initialization:
   329  0017  0183               	clrf	3
   330  0018  120A  118A  2B7C   	ljmp	_main	;jump to C main() function
   331                           
   332                           	psect	bssCOMMON
   333  0077                     __pbssCOMMON:
   334  0077                     _color:
   335  0077                     	ds	1
   336  0078                     _lmm:
   337  0078                     	ds	1
   338                           
   339                           	psect	bssBANK0
   340  0048                     __pbssBANK0:
   341  0048                     _conversor:
   342  0048                     	ds	4
   343                           
   344                           	psect	cstackCOMMON
   345  0070                     __pcstackCOMMON:
   346  0070                     ?_LM:
   347  0070                     ?_setup:	
   348                           ; 1 bytes @ 0x0
   349                           
   350  0070                     ?_ISR:	
   351                           ; 1 bytes @ 0x0
   352                           
   353  0070                     ??_ISR:	
   354                           ; 1 bytes @ 0x0
   355                           
   356  0070                     ?_main:	
   357                           ; 1 bytes @ 0x0
   358                           
   359                           
   360                           ; 1 bytes @ 0x0
   361  0070                     	ds	3
   362  0073                     ??_LM:
   363  0073                     ??_setup:	
   364                           ; 1 bytes @ 0x3
   365                           
   366  0073                     ??___flge:	
   367                           ; 1 bytes @ 0x3
   368                           
   369  0073                     ?__Umul8_16:	
   370                           ; 1 bytes @ 0x3
   371                           
   372  0073                     ?___xxtofl:	
   373                           ; 2 bytes @ 0x3
   374                           
   375  0073                     __Umul8_16@multiplicand:	
   376                           ; 4 bytes @ 0x3
   377                           
   378  0073                     ___xxtofl@val:	
   379                           ; 1 bytes @ 0x3
   380                           
   381                           
   382                           ; 4 bytes @ 0x3
   383  0073                     	ds	1
   384  0074                     LM@banderaLM:
   385                           
   386                           ; 1 bytes @ 0x4
   387  0074                     	ds	1
   388  0075                     ??__Umul8_16:
   389                           
   390                           ; 1 bytes @ 0x5
   391  0075                     	ds	2
   392                           
   393                           	psect	cstackBANK0
   394  0020                     __pcstackBANK0:
   395  0020                     ?___flge:
   396  0020                     ??___xxtofl:	
   397                           ; 1 bit 
   398                           
   399  0020                     __Umul8_16@product:	
   400                           ; 1 bytes @ 0x0
   401                           
   402  0020                     ___flge@ff1:	
   403                           ; 2 bytes @ 0x0
   404                           
   405                           
   406                           ; 4 bytes @ 0x0
   407  0020                     	ds	2
   408  0022                     __Umul8_16@word_mpld:
   409                           
   410                           ; 2 bytes @ 0x2
   411  0022                     	ds	2
   412  0024                     __Umul8_16@multiplier:
   413  0024                     ___xxtofl@sign:	
   414                           ; 1 bytes @ 0x4
   415                           
   416  0024                     ___flge@ff2:	
   417                           ; 1 bytes @ 0x4
   418                           
   419                           
   420                           ; 4 bytes @ 0x4
   421  0024                     	ds	1
   422  0025                     ___xxtofl@exp:
   423                           
   424                           ; 1 bytes @ 0x5
   425  0025                     	ds	1
   426  0026                     ___xxtofl@arg:
   427                           
   428                           ; 4 bytes @ 0x6
   429  0026                     	ds	4
   430  002A                     ?___flmul:
   431  002A                     ___flmul@b:	
   432                           ; 4 bytes @ 0xA
   433                           
   434                           
   435                           ; 4 bytes @ 0xA
   436  002A                     	ds	4
   437  002E                     ___flmul@a:
   438                           
   439                           ; 4 bytes @ 0xE
   440  002E                     	ds	4
   441  0032                     ??___flmul:
   442                           
   443                           ; 1 bytes @ 0x12
   444  0032                     	ds	5
   445  0037                     ___flmul@sign:
   446                           
   447                           ; 1 bytes @ 0x17
   448  0037                     	ds	1
   449  0038                     ___flmul@grs:
   450                           
   451                           ; 4 bytes @ 0x18
   452  0038                     	ds	4
   453  003C                     ___flmul@aexp:
   454                           
   455                           ; 1 bytes @ 0x1C
   456  003C                     	ds	1
   457  003D                     ___flmul@bexp:
   458                           
   459                           ; 1 bytes @ 0x1D
   460  003D                     	ds	1
   461  003E                     ___flmul@prod:
   462                           
   463                           ; 4 bytes @ 0x1E
   464  003E                     	ds	4
   465  0042                     ___flmul@temp:
   466                           
   467                           ; 2 bytes @ 0x22
   468  0042                     	ds	2
   469  0044                     ??_main:
   470                           
   471                           ; 1 bytes @ 0x24
   472  0044                     	ds	4
   473                           
   474                           	psect	maintext
   475  037C                     __pmaintext:	
   476 ;;
   477 ;;Main: autosize = 0, tempsize = 4, incstack = 0, save=0
   478 ;;
   479 ;; *************** function _main *****************
   480 ;; Defined at:
   481 ;;		line 74 in file "main.c"
   482 ;; Parameters:    Size  Location     Type
   483 ;;		None
   484 ;; Auto vars:     Size  Location     Type
   485 ;;		None
   486 ;; Return value:  Size  Location     Type
   487 ;;                  1    wreg      void 
   488 ;; Registers used:
   489 ;;		wreg, status,2, status,0, btemp+1, pclath, cstack
   490 ;; Tracked objects:
   491 ;;		On entry : B00/0
   492 ;;		On exit  : 0/0
   493 ;;		Unchanged: 0/0
   494 ;; Data sizes:     COMMON   BANK0   BANK1   BANK3   BANK2
   495 ;;      Params:         0       0       0       0       0
   496 ;;      Locals:         0       0       0       0       0
   497 ;;      Temps:          0       4       0       0       0
   498 ;;      Totals:         0       4       0       0       0
   499 ;;Total ram usage:        4 bytes
   500 ;; Hardware stack levels required when called:    3
   501 ;; This function calls:
   502 ;;		_LM
   503 ;;		___flge
   504 ;;		___flmul
   505 ;;		___xxtofl
   506 ;;		_setup
   507 ;; This function is called by:
   508 ;;		Startup code after reset
   509 ;; This function uses a non-reentrant model
   510 ;;
   511                           
   512                           
   513                           ;psect for function _main
   514  037C                     _main:
   515  037C                     l1300:	
   516                           ;incstack = 0
   517                           ; Regs used in _main: [wreg+status,2+status,0+btemp+1+pclath+cstack]
   518                           
   519  037C  120A  118A  260B  120A  118A  	fcall	_setup
   520  0381                     l1302:
   521  0381  01F9               	clrf	_banderaLM
   522  0382  0AF9               	incf	_banderaLM,f
   523  0383                     l42:
   524  0383  0879               	movf	_banderaLM,w
   525  0384  120A  118A  25D6  120A  118A  	fcall	_LM
   526  0389                     l1304:
   527  0389  303F               	movlw	63
   528  038A  1283               	bcf	3,5	;RP0=0, select bank0
   529  038B  1303               	bcf	3,6	;RP1=0, select bank0
   530  038C  00AD               	movwf	___flmul@b+3
   531  038D  30F9               	movlw	249
   532  038E  00AC               	movwf	___flmul@b+2
   533  038F  3099               	movlw	153
   534  0390  00AB               	movwf	___flmul@b+1
   535  0391  309A               	movlw	154
   536  0392  00AA               	movwf	___flmul@b
   537  0393  0878               	movf	_lmm,w
   538  0394  00C4               	movwf	??_main
   539  0395  01C5               	clrf	??_main+1
   540  0396  01C6               	clrf	??_main+2
   541  0397  01C7               	clrf	??_main+3
   542  0398  0847               	movf	??_main+3,w
   543  0399  00F6               	movwf	___xxtofl@val+3
   544  039A  0846               	movf	??_main+2,w
   545  039B  00F5               	movwf	___xxtofl@val+2
   546  039C  0845               	movf	??_main+1,w
   547  039D  00F4               	movwf	___xxtofl@val+1
   548  039E  0844               	movf	??_main,w
   549  039F  00F3               	movwf	___xxtofl@val
   550  03A0  3001               	movlw	1
   551  03A1  120A  118A  244D  120A  118A  	fcall	___xxtofl
   552  03A6  0876               	movf	?___xxtofl+3,w
   553  03A7  1283               	bcf	3,5	;RP0=0, select bank0
   554  03A8  1303               	bcf	3,6	;RP1=0, select bank0
   555  03A9  00B1               	movwf	___flmul@a+3
   556  03AA  0875               	movf	?___xxtofl+2,w
   557  03AB  00B0               	movwf	___flmul@a+2
   558  03AC  0874               	movf	?___xxtofl+1,w
   559  03AD  00AF               	movwf	___flmul@a+1
   560  03AE  0873               	movf	?___xxtofl,w
   561  03AF  00AE               	movwf	___flmul@a
   562  03B0  120A  118A  201B  120A  118A  	fcall	___flmul
   563  03B5  1283               	bcf	3,5	;RP0=0, select bank0
   564  03B6  1303               	bcf	3,6	;RP1=0, select bank0
   565  03B7  082D               	movf	?___flmul+3,w
   566  03B8  00CB               	movwf	_conversor+3
   567  03B9  082C               	movf	?___flmul+2,w
   568  03BA  00CA               	movwf	_conversor+2
   569  03BB  082B               	movf	?___flmul+1,w
   570  03BC  00C9               	movwf	_conversor+1
   571  03BD  082A               	movf	?___flmul,w
   572  03BE  00C8               	movwf	_conversor
   573  03BF                     l1306:
   574  03BF  084B               	movf	_conversor+3,w
   575  03C0  00A3               	movwf	___flge@ff1+3
   576  03C1  084A               	movf	_conversor+2,w
   577  03C2  00A2               	movwf	___flge@ff1+2
   578  03C3  0849               	movf	_conversor+1,w
   579  03C4  00A1               	movwf	___flge@ff1+1
   580  03C5  0848               	movf	_conversor,w
   581  03C6  00A0               	movwf	___flge@ff1
   582  03C7  3041               	movlw	65
   583  03C8  00A7               	movwf	___flge@ff2+3
   584  03C9  30A8               	movlw	168
   585  03CA  00A6               	movwf	___flge@ff2+2
   586  03CB  3000               	movlw	0
   587  03CC  00A5               	movwf	___flge@ff2+1
   588  03CD  3000               	movlw	0
   589  03CE  00A4               	movwf	___flge@ff2
   590  03CF  120A  118A  2509  120A  118A  	fcall	___flge
   591  03D4  1803               	btfsc	3,0
   592  03D5  2BD7               	goto	u1551
   593  03D6  2BD8               	goto	u1550
   594  03D7                     u1551:
   595  03D7  2BEC               	goto	l1312
   596  03D8                     u1550:
   597  03D8                     l1308:
   598  03D8  1283               	bcf	3,5	;RP0=0, select bank0
   599  03D9  1303               	bcf	3,6	;RP1=0, select bank0
   600  03DA  1508               	bsf	8,2	;volatile
   601  03DB  1088               	bcf	8,1	;volatile
   602  03DC  1008               	bcf	8,0	;volatile
   603  03DD                     l1310:
   604  03DD  3006               	movlw	6
   605  03DE  1283               	bcf	3,5	;RP0=0, select bank0
   606  03DF  1303               	bcf	3,6	;RP1=0, select bank0
   607  03E0  00C6               	movwf	??_main+2
   608  03E1  3013               	movlw	19
   609  03E2  00C5               	movwf	??_main+1
   610  03E3  30AD               	movlw	173
   611  03E4  00C4               	movwf	??_main
   612  03E5                     u1597:
   613  03E5  0BC4               	decfsz	??_main,f
   614  03E6  2BE5               	goto	u1597
   615  03E7  0BC5               	decfsz	??_main+1,f
   616  03E8  2BE5               	goto	u1597
   617  03E9  0BC6               	decfsz	??_main+2,f
   618  03EA  2BE5               	goto	u1597
   619  03EB  2B83               	goto	l42
   620  03EC                     l1312:
   621  03EC  3041               	movlw	65
   622  03ED  1283               	bcf	3,5	;RP0=0, select bank0
   623  03EE  1303               	bcf	3,6	;RP1=0, select bank0
   624  03EF  00A3               	movwf	___flge@ff1+3
   625  03F0  30A8               	movlw	168
   626  03F1  00A2               	movwf	___flge@ff1+2
   627  03F2  3000               	movlw	0
   628  03F3  00A1               	movwf	___flge@ff1+1
   629  03F4  3000               	movlw	0
   630  03F5  00A0               	movwf	___flge@ff1
   631  03F6  084B               	movf	_conversor+3,w
   632  03F7  00A7               	movwf	___flge@ff2+3
   633  03F8  084A               	movf	_conversor+2,w
   634  03F9  00A6               	movwf	___flge@ff2+2
   635  03FA  0849               	movf	_conversor+1,w
   636  03FB  00A5               	movwf	___flge@ff2+1
   637  03FC  0848               	movf	_conversor,w
   638  03FD  00A4               	movwf	___flge@ff2
   639  03FE  120A  118A  2509  120A  118A  	fcall	___flge
   640  0403  1803               	btfsc	3,0
   641  0404  2C06               	goto	u1561
   642  0405  2C07               	goto	u1560
   643  0406                     u1561:
   644  0406  2C28               	goto	l1320
   645  0407                     u1560:
   646  0407                     l1314:
   647  0407  1283               	bcf	3,5	;RP0=0, select bank0
   648  0408  1303               	bcf	3,6	;RP1=0, select bank0
   649  0409  084B               	movf	_conversor+3,w
   650  040A  00A3               	movwf	___flge@ff1+3
   651  040B  084A               	movf	_conversor+2,w
   652  040C  00A2               	movwf	___flge@ff1+2
   653  040D  0849               	movf	_conversor+1,w
   654  040E  00A1               	movwf	___flge@ff1+1
   655  040F  0848               	movf	_conversor,w
   656  0410  00A0               	movwf	___flge@ff1
   657  0411  3042               	movlw	66
   658  0412  00A7               	movwf	___flge@ff2+3
   659  0413  3010               	movlw	16
   660  0414  00A6               	movwf	___flge@ff2+2
   661  0415  3000               	movlw	0
   662  0416  00A5               	movwf	___flge@ff2+1
   663  0417  3000               	movlw	0
   664  0418  00A4               	movwf	___flge@ff2
   665  0419  120A  118A  2509  120A  118A  	fcall	___flge
   666  041E  1803               	btfsc	3,0
   667  041F  2C21               	goto	u1571
   668  0420  2C22               	goto	u1570
   669  0421                     u1571:
   670  0421  2C28               	goto	l1320
   671  0422                     u1570:
   672  0422                     l1316:
   673  0422  1283               	bcf	3,5	;RP0=0, select bank0
   674  0423  1303               	bcf	3,6	;RP1=0, select bank0
   675  0424  1108               	bcf	8,2	;volatile
   676  0425  1488               	bsf	8,1	;volatile
   677  0426  1008               	bcf	8,0	;volatile
   678  0427  2BDD               	goto	l1310
   679  0428                     l1320:
   680  0428  3042               	movlw	66
   681  0429  1283               	bcf	3,5	;RP0=0, select bank0
   682  042A  1303               	bcf	3,6	;RP1=0, select bank0
   683  042B  00A3               	movwf	___flge@ff1+3
   684  042C  3010               	movlw	16
   685  042D  00A2               	movwf	___flge@ff1+2
   686  042E  3000               	movlw	0
   687  042F  00A1               	movwf	___flge@ff1+1
   688  0430  3000               	movlw	0
   689  0431  00A0               	movwf	___flge@ff1
   690  0432  084B               	movf	_conversor+3,w
   691  0433  00A7               	movwf	___flge@ff2+3
   692  0434  084A               	movf	_conversor+2,w
   693  0435  00A6               	movwf	___flge@ff2+2
   694  0436  0849               	movf	_conversor+1,w
   695  0437  00A5               	movwf	___flge@ff2+1
   696  0438  0848               	movf	_conversor,w
   697  0439  00A4               	movwf	___flge@ff2
   698  043A  120A  118A  2509  120A  118A  	fcall	___flge
   699  043F  1803               	btfsc	3,0
   700  0440  2C42               	goto	u1581
   701  0441  2C43               	goto	u1580
   702  0442                     u1581:
   703  0442  2C49               	goto	l44
   704  0443                     u1580:
   705  0443                     l1322:
   706  0443  1283               	bcf	3,5	;RP0=0, select bank0
   707  0444  1303               	bcf	3,6	;RP1=0, select bank0
   708  0445  1108               	bcf	8,2	;volatile
   709  0446  1088               	bcf	8,1	;volatile
   710  0447  1408               	bsf	8,0	;volatile
   711  0448  2BDD               	goto	l1310
   712  0449                     l44:
   713  0449  2B83               	goto	l42
   714  044A  120A  118A  280C   	ljmp	start
   715  044D                     __end_of_main:
   716                           
   717                           	psect	text1
   718  060B                     __ptext1:	
   719 ;; *************** function _setup *****************
   720 ;; Defined at:
   721 ;;		line 46 in file "main.c"
   722 ;; Parameters:    Size  Location     Type
   723 ;;		None
   724 ;; Auto vars:     Size  Location     Type
   725 ;;		None
   726 ;; Return value:  Size  Location     Type
   727 ;;                  1    wreg      void 
   728 ;; Registers used:
   729 ;;		wreg, status,2
   730 ;; Tracked objects:
   731 ;;		On entry : 0/0
   732 ;;		On exit  : 0/0
   733 ;;		Unchanged: 0/0
   734 ;; Data sizes:     COMMON   BANK0   BANK1   BANK3   BANK2
   735 ;;      Params:         0       0       0       0       0
   736 ;;      Locals:         0       0       0       0       0
   737 ;;      Temps:          0       0       0       0       0
   738 ;;      Totals:         0       0       0       0       0
   739 ;;Total ram usage:        0 bytes
   740 ;; Hardware stack levels used:    1
   741 ;; Hardware stack levels required when called:    1
   742 ;; This function calls:
   743 ;;		Nothing
   744 ;; This function is called by:
   745 ;;		_main
   746 ;; This function uses a non-reentrant model
   747 ;;
   748                           
   749                           
   750                           ;psect for function _setup
   751  060B                     _setup:
   752  060B                     l974:	
   753                           ;incstack = 0
   754                           ; Regs used in _setup: [wreg+status,2]
   755                           
   756                           
   757                           ;main.c: 47:         conversor = 1.95*lmm;
   758  060B  3001               	movlw	1
   759  060C  1683               	bsf	3,5	;RP0=1, select bank3
   760  060D  1703               	bsf	3,6	;RP1=1, select bank3
   761  060E  0088               	movwf	8	;volatile
   762  060F                     l976:
   763                           
   764                           ;main.c: 48:         if (conversor < 21 ){
   765  060F  0189               	clrf	9	;volatile
   766  0610                     l978:
   767                           
   768                           ;main.c: 49:             PORTDbits.RD2 = 1;
   769  0610  30E8               	movlw	232
   770  0611  008B               	movwf	11	;volatile
   771  0612                     l980:
   772                           
   773                           ;main.c: 53:         }
   774  0612  1683               	bsf	3,5	;RP0=1, select bank1
   775  0613  1303               	bcf	3,6	;RP1=0, select bank1
   776  0614  1416               	bsf	22,0	;volatile
   777  0615                     l982:
   778                           
   779                           ;main.c: 54:         else if (conversor > 21 && conversor <36){
   780  0615  1496               	bsf	22,1	;volatile
   781  0616                     l984:
   782                           
   783                           ;main.c: 55:             PORTDbits.RD2 = 0;
   784  0616  1283               	bcf	3,5	;RP0=0, select bank0
   785  0617  1303               	bcf	3,6	;RP1=0, select bank0
   786  0618  1409               	bsf	9,0	;volatile
   787  0619                     l31:
   788  0619  0008               	return
   789  061A                     __end_of_setup:
   790                           
   791                           	psect	text2
   792  044D                     __ptext2:	
   793 ;; *************** function ___xxtofl *****************
   794 ;; Defined at:
   795 ;;		line 10 in file "C:\Program Files\Microchip\xc8\v2.31\pic\sources\c90\common\xxtofl.c"
   796 ;; Parameters:    Size  Location     Type
   797 ;;  sign            1    wreg     unsigned char 
   798 ;;  val             4    3[COMMON] long 
   799 ;; Auto vars:     Size  Location     Type
   800 ;;  sign            1    4[BANK0 ] unsigned char 
   801 ;;  arg             4    6[BANK0 ] unsigned long 
   802 ;;  exp             1    5[BANK0 ] unsigned char 
   803 ;; Return value:  Size  Location     Type
   804 ;;                  4    3[COMMON] unsigned char 
   805 ;; Registers used:
   806 ;;		wreg, status,2, status,0
   807 ;; Tracked objects:
   808 ;;		On entry : 0/0
   809 ;;		On exit  : 0/0
   810 ;;		Unchanged: 0/0
   811 ;; Data sizes:     COMMON   BANK0   BANK1   BANK3   BANK2
   812 ;;      Params:         4       0       0       0       0
   813 ;;      Locals:         0       6       0       0       0
   814 ;;      Temps:          0       4       0       0       0
   815 ;;      Totals:         4      10       0       0       0
   816 ;;Total ram usage:       14 bytes
   817 ;; Hardware stack levels used:    1
   818 ;; Hardware stack levels required when called:    1
   819 ;; This function calls:
   820 ;;		Nothing
   821 ;; This function is called by:
   822 ;;		_main
   823 ;; This function uses a non-reentrant model
   824 ;;
   825                           
   826                           
   827                           ;psect for function ___xxtofl
   828  044D                     ___xxtofl:
   829                           
   830                           ;incstack = 0
   831                           ; Regs used in ___xxtofl: [wreg+status,2+status,0]
   832                           ;___xxtofl@sign stored from wreg
   833  044D  1283               	bcf	3,5	;RP0=0, select bank0
   834  044E  1303               	bcf	3,6	;RP1=0, select bank0
   835  044F  00A4               	movwf	___xxtofl@sign
   836  0450                     l1256:
   837  0450  0824               	movf	___xxtofl@sign,w
   838  0451  1903               	btfsc	3,2
   839  0452  2C54               	goto	u1411
   840  0453  2C55               	goto	u1410
   841  0454                     u1411:
   842  0454  2C69               	goto	l1262
   843  0455                     u1410:
   844  0455                     l1258:
   845  0455  1FF6               	btfss	___xxtofl@val+3,7
   846  0456  2C58               	goto	u1421
   847  0457  2C59               	goto	u1420
   848  0458                     u1421:
   849  0458  2C69               	goto	l1262
   850  0459                     u1420:
   851  0459                     l1260:
   852  0459  0973               	comf	___xxtofl@val,w
   853  045A  00A6               	movwf	___xxtofl@arg
   854  045B  0974               	comf	___xxtofl@val+1,w
   855  045C  00A7               	movwf	___xxtofl@arg+1
   856  045D  0975               	comf	___xxtofl@val+2,w
   857  045E  00A8               	movwf	___xxtofl@arg+2
   858  045F  0976               	comf	___xxtofl@val+3,w
   859  0460  00A9               	movwf	___xxtofl@arg+3
   860  0461  0AA6               	incf	___xxtofl@arg,f
   861  0462  1903               	skipnz
   862  0463  0AA7               	incf	___xxtofl@arg+1,f
   863  0464  1903               	skipnz
   864  0465  0AA8               	incf	___xxtofl@arg+2,f
   865  0466  1903               	skipnz
   866  0467  0AA9               	incf	___xxtofl@arg+3,f
   867  0468  2C71               	goto	l591
   868  0469                     l1262:
   869  0469  0876               	movf	___xxtofl@val+3,w
   870  046A  00A9               	movwf	___xxtofl@arg+3
   871  046B  0875               	movf	___xxtofl@val+2,w
   872  046C  00A8               	movwf	___xxtofl@arg+2
   873  046D  0874               	movf	___xxtofl@val+1,w
   874  046E  00A7               	movwf	___xxtofl@arg+1
   875  046F  0873               	movf	___xxtofl@val,w
   876  0470  00A6               	movwf	___xxtofl@arg
   877  0471                     l591:
   878  0471  0876               	movf	___xxtofl@val+3,w
   879  0472  0475               	iorwf	___xxtofl@val+2,w
   880  0473  0474               	iorwf	___xxtofl@val+1,w
   881  0474  0473               	iorwf	___xxtofl@val,w
   882  0475  1D03               	skipz
   883  0476  2C78               	goto	u1431
   884  0477  2C79               	goto	u1430
   885  0478                     u1431:
   886  0478  2C82               	goto	l1268
   887  0479                     u1430:
   888  0479                     l1264:
   889  0479  3000               	movlw	0
   890  047A  00F6               	movwf	?___xxtofl+3
   891  047B  3000               	movlw	0
   892  047C  00F5               	movwf	?___xxtofl+2
   893  047D  3000               	movlw	0
   894  047E  00F4               	movwf	?___xxtofl+1
   895  047F  3000               	movlw	0
   896  0480  00F3               	movwf	?___xxtofl
   897  0481  2D08               	goto	l593
   898  0482                     l1268:
   899  0482  3096               	movlw	150
   900  0483  00A0               	movwf	??___xxtofl
   901  0484  0820               	movf	??___xxtofl,w
   902  0485  00A5               	movwf	___xxtofl@exp
   903  0486  2C94               	goto	l1272
   904  0487                     l1270:
   905  0487  3001               	movlw	1
   906  0488  00A0               	movwf	??___xxtofl
   907  0489  0820               	movf	??___xxtofl,w
   908  048A  07A5               	addwf	___xxtofl@exp,f
   909  048B  3001               	movlw	1
   910  048C                     u1445:
   911  048C  1003               	clrc
   912  048D  0CA9               	rrf	___xxtofl@arg+3,f
   913  048E  0CA8               	rrf	___xxtofl@arg+2,f
   914  048F  0CA7               	rrf	___xxtofl@arg+1,f
   915  0490  0CA6               	rrf	___xxtofl@arg,f
   916  0491  3EFF               	addlw	-1
   917  0492  1D03               	skipz
   918  0493  2C8C               	goto	u1445
   919  0494                     l1272:
   920  0494  30FE               	movlw	254
   921  0495  0529               	andwf	___xxtofl@arg+3,w
   922  0496  1D03               	btfss	3,2
   923  0497  2C99               	goto	u1451
   924  0498  2C9A               	goto	u1450
   925  0499                     u1451:
   926  0499  2C87               	goto	l1270
   927  049A                     u1450:
   928  049A  2CB6               	goto	l597
   929  049B                     l1274:
   930  049B  3001               	movlw	1
   931  049C  00A0               	movwf	??___xxtofl
   932  049D  0820               	movf	??___xxtofl,w
   933  049E  07A5               	addwf	___xxtofl@exp,f
   934  049F                     l1276:
   935  049F  3001               	movlw	1
   936  04A0  07A6               	addwf	___xxtofl@arg,f
   937  04A1  3000               	movlw	0
   938  04A2  1803               	skipnc
   939  04A3  3001               	movlw	1
   940  04A4  07A7               	addwf	___xxtofl@arg+1,f
   941  04A5  3000               	movlw	0
   942  04A6  1803               	skipnc
   943  04A7  3001               	movlw	1
   944  04A8  07A8               	addwf	___xxtofl@arg+2,f
   945  04A9  3000               	movlw	0
   946  04AA  1803               	skipnc
   947  04AB  3001               	movlw	1
   948  04AC  07A9               	addwf	___xxtofl@arg+3,f
   949  04AD                     l1278:
   950  04AD  3001               	movlw	1
   951  04AE                     u1465:
   952  04AE  1003               	clrc
   953  04AF  0CA9               	rrf	___xxtofl@arg+3,f
   954  04B0  0CA8               	rrf	___xxtofl@arg+2,f
   955  04B1  0CA7               	rrf	___xxtofl@arg+1,f
   956  04B2  0CA6               	rrf	___xxtofl@arg,f
   957  04B3  3EFF               	addlw	-1
   958  04B4  1D03               	skipz
   959  04B5  2CAE               	goto	u1465
   960  04B6                     l597:
   961  04B6  30FF               	movlw	255
   962  04B7  0529               	andwf	___xxtofl@arg+3,w
   963  04B8  1D03               	btfss	3,2
   964  04B9  2CBB               	goto	u1471
   965  04BA  2CBC               	goto	u1470
   966  04BB                     u1471:
   967  04BB  2C9B               	goto	l1274
   968  04BC                     u1470:
   969  04BC  2CC8               	goto	l1282
   970  04BD                     l1280:
   971  04BD  3001               	movlw	1
   972  04BE  02A5               	subwf	___xxtofl@exp,f
   973  04BF  3001               	movlw	1
   974  04C0  00A0               	movwf	??___xxtofl
   975  04C1                     u1485:
   976  04C1  1003               	clrc
   977  04C2  0DA6               	rlf	___xxtofl@arg,f
   978  04C3  0DA7               	rlf	___xxtofl@arg+1,f
   979  04C4  0DA8               	rlf	___xxtofl@arg+2,f
   980  04C5  0DA9               	rlf	___xxtofl@arg+3,f
   981  04C6  0BA0               	decfsz	??___xxtofl,f
   982  04C7  2CC1               	goto	u1485
   983  04C8                     l1282:
   984  04C8  1BA8               	btfsc	___xxtofl@arg+2,7
   985  04C9  2CCB               	goto	u1491
   986  04CA  2CCC               	goto	u1490
   987  04CB                     u1491:
   988  04CB  2CD2               	goto	l604
   989  04CC                     u1490:
   990  04CC                     l1284:
   991  04CC  3002               	movlw	2
   992  04CD  0225               	subwf	___xxtofl@exp,w
   993  04CE  1803               	skipnc
   994  04CF  2CD1               	goto	u1501
   995  04D0  2CD2               	goto	u1500
   996  04D1                     u1501:
   997  04D1  2CBD               	goto	l1280
   998  04D2                     u1500:
   999  04D2                     l604:
  1000  04D2  1825               	btfsc	___xxtofl@exp,0
  1001  04D3  2CD5               	goto	u1511
  1002  04D4  2CD6               	goto	u1510
  1003  04D5                     u1511:
  1004  04D5  2CDE               	goto	l605
  1005  04D6                     u1510:
  1006  04D6                     l1286:
  1007  04D6  30FF               	movlw	255
  1008  04D7  05A6               	andwf	___xxtofl@arg,f
  1009  04D8  30FF               	movlw	255
  1010  04D9  05A7               	andwf	___xxtofl@arg+1,f
  1011  04DA  307F               	movlw	127
  1012  04DB  05A8               	andwf	___xxtofl@arg+2,f
  1013  04DC  30FF               	movlw	255
  1014  04DD  05A9               	andwf	___xxtofl@arg+3,f
  1015  04DE                     l605:
  1016  04DE  1003               	clrc
  1017  04DF  0CA5               	rrf	___xxtofl@exp,f
  1018  04E0                     l1288:
  1019  04E0  0825               	movf	___xxtofl@exp,w
  1020  04E1  00A0               	movwf	??___xxtofl
  1021  04E2  01A1               	clrf	??___xxtofl+1
  1022  04E3  01A2               	clrf	??___xxtofl+2
  1023  04E4  01A3               	clrf	??___xxtofl+3
  1024  04E5  3018               	movlw	24
  1025  04E6                     u1525:
  1026  04E6  1003               	clrc
  1027  04E7  0DA0               	rlf	??___xxtofl,f
  1028  04E8  0DA1               	rlf	??___xxtofl+1,f
  1029  04E9  0DA2               	rlf	??___xxtofl+2,f
  1030  04EA  0DA3               	rlf	??___xxtofl+3,f
  1031  04EB                     u1520:
  1032  04EB  3EFF               	addlw	-1
  1033  04EC  1D03               	skipz
  1034  04ED  2CE6               	goto	u1525
  1035  04EE  0820               	movf	??___xxtofl,w
  1036  04EF  04A6               	iorwf	___xxtofl@arg,f
  1037  04F0  0821               	movf	??___xxtofl+1,w
  1038  04F1  04A7               	iorwf	___xxtofl@arg+1,f
  1039  04F2  0822               	movf	??___xxtofl+2,w
  1040  04F3  04A8               	iorwf	___xxtofl@arg+2,f
  1041  04F4  0823               	movf	??___xxtofl+3,w
  1042  04F5  04A9               	iorwf	___xxtofl@arg+3,f
  1043  04F6                     l1290:
  1044  04F6  0824               	movf	___xxtofl@sign,w
  1045  04F7  1903               	btfsc	3,2
  1046  04F8  2CFA               	goto	u1531
  1047  04F9  2CFB               	goto	u1530
  1048  04FA                     u1531:
  1049  04FA  2D00               	goto	l1296
  1050  04FB                     u1530:
  1051  04FB                     l1292:
  1052  04FB  1FF6               	btfss	___xxtofl@val+3,7
  1053  04FC  2CFE               	goto	u1541
  1054  04FD  2CFF               	goto	u1540
  1055  04FE                     u1541:
  1056  04FE  2D00               	goto	l1296
  1057  04FF                     u1540:
  1058  04FF                     l1294:
  1059  04FF  17A9               	bsf	___xxtofl@arg+3,7
  1060  0500                     l1296:
  1061  0500  0829               	movf	___xxtofl@arg+3,w
  1062  0501  00F6               	movwf	?___xxtofl+3
  1063  0502  0828               	movf	___xxtofl@arg+2,w
  1064  0503  00F5               	movwf	?___xxtofl+2
  1065  0504  0827               	movf	___xxtofl@arg+1,w
  1066  0505  00F4               	movwf	?___xxtofl+1
  1067  0506  0826               	movf	___xxtofl@arg,w
  1068  0507  00F3               	movwf	?___xxtofl
  1069  0508                     l593:
  1070  0508  0008               	return
  1071  0509                     __end_of___xxtofl:
  1072                           
  1073                           	psect	text3
  1074  001B                     __ptext3:	
  1075 ;; *************** function ___flmul *****************
  1076 ;; Defined at:
  1077 ;;		line 8 in file "C:\Program Files\Microchip\xc8\v2.31\pic\sources\c90\common\sprcmul.c"
  1078 ;; Parameters:    Size  Location     Type
  1079 ;;  b               4   10[BANK0 ] unsigned char 
  1080 ;;  a               4   14[BANK0 ] unsigned char 
  1081 ;; Auto vars:     Size  Location     Type
  1082 ;;  prod            4   30[BANK0 ] struct .
  1083 ;;  grs             4   24[BANK0 ] unsigned long 
  1084 ;;  temp            2   34[BANK0 ] struct .
  1085 ;;  bexp            1   29[BANK0 ] unsigned char 
  1086 ;;  aexp            1   28[BANK0 ] unsigned char 
  1087 ;;  sign            1   23[BANK0 ] unsigned char 
  1088 ;; Return value:  Size  Location     Type
  1089 ;;                  4   10[BANK0 ] unsigned char 
  1090 ;; Registers used:
  1091 ;;		wreg, status,2, status,0, btemp+1, pclath, cstack
  1092 ;; Tracked objects:
  1093 ;;		On entry : 0/0
  1094 ;;		On exit  : 0/0
  1095 ;;		Unchanged: 0/0
  1096 ;; Data sizes:     COMMON   BANK0   BANK1   BANK3   BANK2
  1097 ;;      Params:         0       8       0       0       0
  1098 ;;      Locals:         0      13       0       0       0
  1099 ;;      Temps:          0       5       0       0       0
  1100 ;;      Totals:         0      26       0       0       0
  1101 ;;Total ram usage:       26 bytes
  1102 ;; Hardware stack levels used:    1
  1103 ;; Hardware stack levels required when called:    2
  1104 ;; This function calls:
  1105 ;;		__Umul8_16
  1106 ;; This function is called by:
  1107 ;;		_main
  1108 ;; This function uses a non-reentrant model
  1109 ;;
  1110                           
  1111                           
  1112                           ;psect for function ___flmul
  1113  001B                     ___flmul:
  1114  001B                     l1022:	
  1115                           ;incstack = 0
  1116                           ; Regs used in ___flmul: [wreg+status,2+status,0+btemp+1+pclath+cstack]
  1117                           
  1118  001B  1283               	bcf	3,5	;RP0=0, select bank0
  1119  001C  1303               	bcf	3,6	;RP1=0, select bank0
  1120  001D  082D               	movf	___flmul@b+3,w
  1121  001E  3980               	andlw	128
  1122  001F  00B2               	movwf	??___flmul
  1123  0020  0832               	movf	??___flmul,w
  1124  0021  00B7               	movwf	___flmul@sign
  1125  0022                     l1024:
  1126  0022  082D               	movf	___flmul@b+3,w
  1127  0023  00B2               	movwf	??___flmul
  1128  0024  0732               	addwf	??___flmul,w
  1129  0025  00B3               	movwf	??___flmul+1
  1130  0026  0833               	movf	??___flmul+1,w
  1131  0027  00BD               	movwf	___flmul@bexp
  1132  0028                     l1026:
  1133  0028  1FAC               	btfss	___flmul@b+2,7
  1134  0029  282B               	goto	u791
  1135  002A  282C               	goto	u790
  1136  002B                     u791:
  1137  002B  282D               	goto	l1030
  1138  002C                     u790:
  1139  002C                     l1028:
  1140  002C  143D               	bsf	___flmul@bexp,0
  1141  002D                     l1030:
  1142  002D  083D               	movf	___flmul@bexp,w
  1143  002E  1903               	btfsc	3,2
  1144  002F  2831               	goto	u801
  1145  0030  2832               	goto	u800
  1146  0031                     u801:
  1147  0031  2841               	goto	l1038
  1148  0032                     u800:
  1149  0032                     l1032:
  1150  0032  0A3D               	incf	___flmul@bexp,w
  1151  0033  1D03               	btfss	3,2
  1152  0034  2836               	goto	u811
  1153  0035  2837               	goto	u810
  1154  0036                     u811:
  1155  0036  283F               	goto	l1036
  1156  0037                     u810:
  1157  0037                     l1034:
  1158  0037  3000               	movlw	0
  1159  0038  00AD               	movwf	___flmul@b+3
  1160  0039  3000               	movlw	0
  1161  003A  00AC               	movwf	___flmul@b+2
  1162  003B  3000               	movlw	0
  1163  003C  00AB               	movwf	___flmul@b+1
  1164  003D  3000               	movlw	0
  1165  003E  00AA               	movwf	___flmul@b
  1166  003F                     l1036:
  1167  003F  17AC               	bsf	___flmul@b+2,7
  1168  0040  2849               	goto	l1040
  1169  0041                     l1038:
  1170  0041  3000               	movlw	0
  1171  0042  00AD               	movwf	___flmul@b+3
  1172  0043  3000               	movlw	0
  1173  0044  00AC               	movwf	___flmul@b+2
  1174  0045  3000               	movlw	0
  1175  0046  00AB               	movwf	___flmul@b+1
  1176  0047  3000               	movlw	0
  1177  0048  00AA               	movwf	___flmul@b
  1178  0049                     l1040:
  1179  0049  0831               	movf	___flmul@a+3,w
  1180  004A  3980               	andlw	128
  1181  004B  00B2               	movwf	??___flmul
  1182  004C  0832               	movf	??___flmul,w
  1183  004D  06B7               	xorwf	___flmul@sign,f
  1184  004E                     l1042:
  1185  004E  0831               	movf	___flmul@a+3,w
  1186  004F  00B2               	movwf	??___flmul
  1187  0050  0732               	addwf	??___flmul,w
  1188  0051  00B3               	movwf	??___flmul+1
  1189  0052  0833               	movf	??___flmul+1,w
  1190  0053  00BC               	movwf	___flmul@aexp
  1191  0054                     l1044:
  1192  0054  1FB0               	btfss	___flmul@a+2,7
  1193  0055  2857               	goto	u821
  1194  0056  2858               	goto	u820
  1195  0057                     u821:
  1196  0057  2859               	goto	l1048
  1197  0058                     u820:
  1198  0058                     l1046:
  1199  0058  143C               	bsf	___flmul@aexp,0
  1200  0059                     l1048:
  1201  0059  083C               	movf	___flmul@aexp,w
  1202  005A  1903               	btfsc	3,2
  1203  005B  285D               	goto	u831
  1204  005C  285E               	goto	u830
  1205  005D                     u831:
  1206  005D  286D               	goto	l1056
  1207  005E                     u830:
  1208  005E                     l1050:
  1209  005E  0A3C               	incf	___flmul@aexp,w
  1210  005F  1D03               	btfss	3,2
  1211  0060  2862               	goto	u841
  1212  0061  2863               	goto	u840
  1213  0062                     u841:
  1214  0062  286B               	goto	l1054
  1215  0063                     u840:
  1216  0063                     l1052:
  1217  0063  3000               	movlw	0
  1218  0064  00B1               	movwf	___flmul@a+3
  1219  0065  3000               	movlw	0
  1220  0066  00B0               	movwf	___flmul@a+2
  1221  0067  3000               	movlw	0
  1222  0068  00AF               	movwf	___flmul@a+1
  1223  0069  3000               	movlw	0
  1224  006A  00AE               	movwf	___flmul@a
  1225  006B                     l1054:
  1226  006B  17B0               	bsf	___flmul@a+2,7
  1227  006C  2875               	goto	l1058
  1228  006D                     l1056:
  1229  006D  3000               	movlw	0
  1230  006E  00B1               	movwf	___flmul@a+3
  1231  006F  3000               	movlw	0
  1232  0070  00B0               	movwf	___flmul@a+2
  1233  0071  3000               	movlw	0
  1234  0072  00AF               	movwf	___flmul@a+1
  1235  0073  3000               	movlw	0
  1236  0074  00AE               	movwf	___flmul@a
  1237  0075                     l1058:
  1238  0075  083C               	movf	___flmul@aexp,w
  1239  0076  1903               	btfsc	3,2
  1240  0077  2879               	goto	u851
  1241  0078  287A               	goto	u850
  1242  0079                     u851:
  1243  0079  287F               	goto	l1062
  1244  007A                     u850:
  1245  007A                     l1060:
  1246  007A  083D               	movf	___flmul@bexp,w
  1247  007B  1D03               	btfss	3,2
  1248  007C  287E               	goto	u861
  1249  007D  287F               	goto	u860
  1250  007E                     u861:
  1251  007E  2888               	goto	l1066
  1252  007F                     u860:
  1253  007F                     l1062:
  1254  007F  3000               	movlw	0
  1255  0080  00AD               	movwf	?___flmul+3
  1256  0081  3000               	movlw	0
  1257  0082  00AC               	movwf	?___flmul+2
  1258  0083  3000               	movlw	0
  1259  0084  00AB               	movwf	?___flmul+1
  1260  0085  3000               	movlw	0
  1261  0086  00AA               	movwf	?___flmul
  1262  0087  2B7B               	goto	l547
  1263  0088                     l1066:
  1264  0088  082A               	movf	___flmul@b,w
  1265  0089  00B2               	movwf	??___flmul
  1266  008A  0832               	movf	??___flmul,w
  1267  008B  00F3               	movwf	__Umul8_16@multiplicand
  1268  008C  0830               	movf	___flmul@a+2,w
  1269  008D  120A  118A  25AD  120A  118A  	fcall	__Umul8_16
  1270  0092  0874               	movf	?__Umul8_16+1,w
  1271  0093  1283               	bcf	3,5	;RP0=0, select bank0
  1272  0094  1303               	bcf	3,6	;RP1=0, select bank0
  1273  0095  00C3               	movwf	___flmul@temp+1
  1274  0096  0873               	movf	?__Umul8_16,w
  1275  0097  00C2               	movwf	___flmul@temp
  1276  0098                     l1068:
  1277  0098  0842               	movf	___flmul@temp,w
  1278  0099  00B2               	movwf	??___flmul
  1279  009A  01B3               	clrf	??___flmul+1
  1280  009B  01B4               	clrf	??___flmul+2
  1281  009C  01B5               	clrf	??___flmul+3
  1282  009D  0835               	movf	??___flmul+3,w
  1283  009E  00BB               	movwf	___flmul@grs+3
  1284  009F  0834               	movf	??___flmul+2,w
  1285  00A0  00BA               	movwf	___flmul@grs+2
  1286  00A1  0833               	movf	??___flmul+1,w
  1287  00A2  00B9               	movwf	___flmul@grs+1
  1288  00A3  0832               	movf	??___flmul,w
  1289  00A4  00B8               	movwf	___flmul@grs
  1290  00A5                     l1070:
  1291  00A5  0843               	movf	___flmul@temp+1,w
  1292  00A6  00B2               	movwf	??___flmul
  1293  00A7  01B3               	clrf	??___flmul+1
  1294  00A8  01B4               	clrf	??___flmul+2
  1295  00A9  01B5               	clrf	??___flmul+3
  1296  00AA  0835               	movf	??___flmul+3,w
  1297  00AB  00C1               	movwf	___flmul@prod+3
  1298  00AC  0834               	movf	??___flmul+2,w
  1299  00AD  00C0               	movwf	___flmul@prod+2
  1300  00AE  0833               	movf	??___flmul+1,w
  1301  00AF  00BF               	movwf	___flmul@prod+1
  1302  00B0  0832               	movf	??___flmul,w
  1303  00B1  00BE               	movwf	___flmul@prod
  1304  00B2  082B               	movf	___flmul@b+1,w
  1305  00B3  00B2               	movwf	??___flmul
  1306  00B4  0832               	movf	??___flmul,w
  1307  00B5  00F3               	movwf	__Umul8_16@multiplicand
  1308  00B6  082F               	movf	___flmul@a+1,w
  1309  00B7  120A  118A  25AD  120A  118A  	fcall	__Umul8_16
  1310  00BC  0874               	movf	?__Umul8_16+1,w
  1311  00BD  1283               	bcf	3,5	;RP0=0, select bank0
  1312  00BE  1303               	bcf	3,6	;RP1=0, select bank0
  1313  00BF  00C3               	movwf	___flmul@temp+1
  1314  00C0  0873               	movf	?__Umul8_16,w
  1315  00C1  00C2               	movwf	___flmul@temp
  1316  00C2                     l1072:
  1317  00C2  0842               	movf	___flmul@temp,w
  1318  00C3  00B2               	movwf	??___flmul
  1319  00C4  01B3               	clrf	??___flmul+1
  1320  00C5  01B4               	clrf	??___flmul+2
  1321  00C6  01B5               	clrf	??___flmul+3
  1322  00C7  0832               	movf	??___flmul,w
  1323  00C8  07B8               	addwf	___flmul@grs,f
  1324  00C9  0833               	movf	??___flmul+1,w
  1325  00CA  1103               	clrz
  1326  00CB  1803               	skipnc
  1327  00CC  3E01               	addlw	1
  1328  00CD  1903               	skipnz
  1329  00CE  28D0               	goto	u871
  1330  00CF  07B9               	addwf	___flmul@grs+1,f
  1331  00D0                     u871:
  1332  00D0  0834               	movf	??___flmul+2,w
  1333  00D1  1103               	clrz
  1334  00D2  1803               	skipnc
  1335  00D3  3E01               	addlw	1
  1336  00D4  1903               	skipnz
  1337  00D5  28D7               	goto	u872
  1338  00D6  07BA               	addwf	___flmul@grs+2,f
  1339  00D7                     u872:
  1340  00D7  0835               	movf	??___flmul+3,w
  1341  00D8  1103               	clrz
  1342  00D9  1803               	skipnc
  1343  00DA  3E01               	addlw	1
  1344  00DB  1903               	skipnz
  1345  00DC  28DE               	goto	u873
  1346  00DD  07BB               	addwf	___flmul@grs+3,f
  1347  00DE                     u873:
  1348  00DE                     l1074:
  1349  00DE  0843               	movf	___flmul@temp+1,w
  1350  00DF  00B2               	movwf	??___flmul
  1351  00E0  01B3               	clrf	??___flmul+1
  1352  00E1  01B4               	clrf	??___flmul+2
  1353  00E2  01B5               	clrf	??___flmul+3
  1354  00E3  0832               	movf	??___flmul,w
  1355  00E4  07BE               	addwf	___flmul@prod,f
  1356  00E5  0833               	movf	??___flmul+1,w
  1357  00E6  1103               	clrz
  1358  00E7  1803               	skipnc
  1359  00E8  3E01               	addlw	1
  1360  00E9  1903               	skipnz
  1361  00EA  28EC               	goto	u881
  1362  00EB  07BF               	addwf	___flmul@prod+1,f
  1363  00EC                     u881:
  1364  00EC  0834               	movf	??___flmul+2,w
  1365  00ED  1103               	clrz
  1366  00EE  1803               	skipnc
  1367  00EF  3E01               	addlw	1
  1368  00F0  1903               	skipnz
  1369  00F1  28F3               	goto	u882
  1370  00F2  07C0               	addwf	___flmul@prod+2,f
  1371  00F3                     u882:
  1372  00F3  0835               	movf	??___flmul+3,w
  1373  00F4  1103               	clrz
  1374  00F5  1803               	skipnc
  1375  00F6  3E01               	addlw	1
  1376  00F7  1903               	skipnz
  1377  00F8  28FA               	goto	u883
  1378  00F9  07C1               	addwf	___flmul@prod+3,f
  1379  00FA                     u883:
  1380  00FA  082C               	movf	___flmul@b+2,w
  1381  00FB  00B2               	movwf	??___flmul
  1382  00FC  0832               	movf	??___flmul,w
  1383  00FD  00F3               	movwf	__Umul8_16@multiplicand
  1384  00FE  082E               	movf	___flmul@a,w
  1385  00FF  120A  118A  25AD  120A  118A  	fcall	__Umul8_16
  1386  0104  0874               	movf	?__Umul8_16+1,w
  1387  0105  1283               	bcf	3,5	;RP0=0, select bank0
  1388  0106  1303               	bcf	3,6	;RP1=0, select bank0
  1389  0107  00C3               	movwf	___flmul@temp+1
  1390  0108  0873               	movf	?__Umul8_16,w
  1391  0109  00C2               	movwf	___flmul@temp
  1392  010A                     l1076:
  1393  010A  0842               	movf	___flmul@temp,w
  1394  010B  00B2               	movwf	??___flmul
  1395  010C  01B3               	clrf	??___flmul+1
  1396  010D  01B4               	clrf	??___flmul+2
  1397  010E  01B5               	clrf	??___flmul+3
  1398  010F  0832               	movf	??___flmul,w
  1399  0110  07B8               	addwf	___flmul@grs,f
  1400  0111  0833               	movf	??___flmul+1,w
  1401  0112  1103               	clrz
  1402  0113  1803               	skipnc
  1403  0114  3E01               	addlw	1
  1404  0115  1903               	skipnz
  1405  0116  2918               	goto	u891
  1406  0117  07B9               	addwf	___flmul@grs+1,f
  1407  0118                     u891:
  1408  0118  0834               	movf	??___flmul+2,w
  1409  0119  1103               	clrz
  1410  011A  1803               	skipnc
  1411  011B  3E01               	addlw	1
  1412  011C  1903               	skipnz
  1413  011D  291F               	goto	u892
  1414  011E  07BA               	addwf	___flmul@grs+2,f
  1415  011F                     u892:
  1416  011F  0835               	movf	??___flmul+3,w
  1417  0120  1103               	clrz
  1418  0121  1803               	skipnc
  1419  0122  3E01               	addlw	1
  1420  0123  1903               	skipnz
  1421  0124  2926               	goto	u893
  1422  0125  07BB               	addwf	___flmul@grs+3,f
  1423  0126                     u893:
  1424  0126                     l1078:
  1425  0126  0843               	movf	___flmul@temp+1,w
  1426  0127  00B2               	movwf	??___flmul
  1427  0128  01B3               	clrf	??___flmul+1
  1428  0129  01B4               	clrf	??___flmul+2
  1429  012A  01B5               	clrf	??___flmul+3
  1430  012B  0832               	movf	??___flmul,w
  1431  012C  07BE               	addwf	___flmul@prod,f
  1432  012D  0833               	movf	??___flmul+1,w
  1433  012E  1103               	clrz
  1434  012F  1803               	skipnc
  1435  0130  3E01               	addlw	1
  1436  0131  1903               	skipnz
  1437  0132  2934               	goto	u901
  1438  0133  07BF               	addwf	___flmul@prod+1,f
  1439  0134                     u901:
  1440  0134  0834               	movf	??___flmul+2,w
  1441  0135  1103               	clrz
  1442  0136  1803               	skipnc
  1443  0137  3E01               	addlw	1
  1444  0138  1903               	skipnz
  1445  0139  293B               	goto	u902
  1446  013A  07C0               	addwf	___flmul@prod+2,f
  1447  013B                     u902:
  1448  013B  0835               	movf	??___flmul+3,w
  1449  013C  1103               	clrz
  1450  013D  1803               	skipnc
  1451  013E  3E01               	addlw	1
  1452  013F  1903               	skipnz
  1453  0140  2942               	goto	u903
  1454  0141  07C1               	addwf	___flmul@prod+3,f
  1455  0142                     u903:
  1456  0142                     l1080:
  1457  0142  3008               	movlw	8
  1458  0143  00B2               	movwf	??___flmul
  1459  0144                     u915:
  1460  0144  1003               	clrc
  1461  0145  0DB8               	rlf	___flmul@grs,f
  1462  0146  0DB9               	rlf	___flmul@grs+1,f
  1463  0147  0DBA               	rlf	___flmul@grs+2,f
  1464  0148  0DBB               	rlf	___flmul@grs+3,f
  1465  0149  0BB2               	decfsz	??___flmul,f
  1466  014A  2944               	goto	u915
  1467  014B                     l1082:
  1468  014B  082B               	movf	___flmul@b+1,w
  1469  014C  00B2               	movwf	??___flmul
  1470  014D  0832               	movf	??___flmul,w
  1471  014E  00F3               	movwf	__Umul8_16@multiplicand
  1472  014F  082E               	movf	___flmul@a,w
  1473  0150  120A  118A  25AD  120A  118A  	fcall	__Umul8_16
  1474  0155  0874               	movf	?__Umul8_16+1,w
  1475  0156  1283               	bcf	3,5	;RP0=0, select bank0
  1476  0157  1303               	bcf	3,6	;RP1=0, select bank0
  1477  0158  00C3               	movwf	___flmul@temp+1
  1478  0159  0873               	movf	?__Umul8_16,w
  1479  015A  00C2               	movwf	___flmul@temp
  1480  015B                     l1084:
  1481  015B  0842               	movf	___flmul@temp,w
  1482  015C  00B2               	movwf	??___flmul
  1483  015D  0843               	movf	___flmul@temp+1,w
  1484  015E  00B3               	movwf	??___flmul+1
  1485  015F  01B4               	clrf	??___flmul+2
  1486  0160  01B5               	clrf	??___flmul+3
  1487  0161  0832               	movf	??___flmul,w
  1488  0162  07B8               	addwf	___flmul@grs,f
  1489  0163  0833               	movf	??___flmul+1,w
  1490  0164  1103               	clrz
  1491  0165  1803               	skipnc
  1492  0166  3E01               	addlw	1
  1493  0167  1903               	skipnz
  1494  0168  296A               	goto	u921
  1495  0169  07B9               	addwf	___flmul@grs+1,f
  1496  016A                     u921:
  1497  016A  0834               	movf	??___flmul+2,w
  1498  016B  1103               	clrz
  1499  016C  1803               	skipnc
  1500  016D  3E01               	addlw	1
  1501  016E  1903               	skipnz
  1502  016F  2971               	goto	u922
  1503  0170  07BA               	addwf	___flmul@grs+2,f
  1504  0171                     u922:
  1505  0171  0835               	movf	??___flmul+3,w
  1506  0172  1103               	clrz
  1507  0173  1803               	skipnc
  1508  0174  3E01               	addlw	1
  1509  0175  1903               	skipnz
  1510  0176  2978               	goto	u923
  1511  0177  07BB               	addwf	___flmul@grs+3,f
  1512  0178                     u923:
  1513  0178                     l1086:
  1514  0178  082A               	movf	___flmul@b,w
  1515  0179  00B2               	movwf	??___flmul
  1516  017A  0832               	movf	??___flmul,w
  1517  017B  00F3               	movwf	__Umul8_16@multiplicand
  1518  017C  082F               	movf	___flmul@a+1,w
  1519  017D  120A  118A  25AD  120A  118A  	fcall	__Umul8_16
  1520  0182  0874               	movf	?__Umul8_16+1,w
  1521  0183  1283               	bcf	3,5	;RP0=0, select bank0
  1522  0184  1303               	bcf	3,6	;RP1=0, select bank0
  1523  0185  00C3               	movwf	___flmul@temp+1
  1524  0186  0873               	movf	?__Umul8_16,w
  1525  0187  00C2               	movwf	___flmul@temp
  1526  0188                     l1088:
  1527  0188  0842               	movf	___flmul@temp,w
  1528  0189  00B2               	movwf	??___flmul
  1529  018A  0843               	movf	___flmul@temp+1,w
  1530  018B  00B3               	movwf	??___flmul+1
  1531  018C  01B4               	clrf	??___flmul+2
  1532  018D  01B5               	clrf	??___flmul+3
  1533  018E  0832               	movf	??___flmul,w
  1534  018F  07B8               	addwf	___flmul@grs,f
  1535  0190  0833               	movf	??___flmul+1,w
  1536  0191  1103               	clrz
  1537  0192  1803               	skipnc
  1538  0193  3E01               	addlw	1
  1539  0194  1903               	skipnz
  1540  0195  2997               	goto	u931
  1541  0196  07B9               	addwf	___flmul@grs+1,f
  1542  0197                     u931:
  1543  0197  0834               	movf	??___flmul+2,w
  1544  0198  1103               	clrz
  1545  0199  1803               	skipnc
  1546  019A  3E01               	addlw	1
  1547  019B  1903               	skipnz
  1548  019C  299E               	goto	u932
  1549  019D  07BA               	addwf	___flmul@grs+2,f
  1550  019E                     u932:
  1551  019E  0835               	movf	??___flmul+3,w
  1552  019F  1103               	clrz
  1553  01A0  1803               	skipnc
  1554  01A1  3E01               	addlw	1
  1555  01A2  1903               	skipnz
  1556  01A3  29A5               	goto	u933
  1557  01A4  07BB               	addwf	___flmul@grs+3,f
  1558  01A5                     u933:
  1559  01A5                     l1090:
  1560  01A5  3008               	movlw	8
  1561  01A6  00B2               	movwf	??___flmul
  1562  01A7                     u945:
  1563  01A7  1003               	clrc
  1564  01A8  0DB8               	rlf	___flmul@grs,f
  1565  01A9  0DB9               	rlf	___flmul@grs+1,f
  1566  01AA  0DBA               	rlf	___flmul@grs+2,f
  1567  01AB  0DBB               	rlf	___flmul@grs+3,f
  1568  01AC  0BB2               	decfsz	??___flmul,f
  1569  01AD  29A7               	goto	u945
  1570  01AE  082A               	movf	___flmul@b,w
  1571  01AF  00B2               	movwf	??___flmul
  1572  01B0  0832               	movf	??___flmul,w
  1573  01B1  00F3               	movwf	__Umul8_16@multiplicand
  1574  01B2  082E               	movf	___flmul@a,w
  1575  01B3  120A  118A  25AD  120A  118A  	fcall	__Umul8_16
  1576  01B8  0874               	movf	?__Umul8_16+1,w
  1577  01B9  1283               	bcf	3,5	;RP0=0, select bank0
  1578  01BA  1303               	bcf	3,6	;RP1=0, select bank0
  1579  01BB  00C3               	movwf	___flmul@temp+1
  1580  01BC  0873               	movf	?__Umul8_16,w
  1581  01BD  00C2               	movwf	___flmul@temp
  1582  01BE                     l1092:
  1583  01BE  0842               	movf	___flmul@temp,w
  1584  01BF  00B2               	movwf	??___flmul
  1585  01C0  0843               	movf	___flmul@temp+1,w
  1586  01C1  00B3               	movwf	??___flmul+1
  1587  01C2  01B4               	clrf	??___flmul+2
  1588  01C3  01B5               	clrf	??___flmul+3
  1589  01C4  0832               	movf	??___flmul,w
  1590  01C5  07B8               	addwf	___flmul@grs,f
  1591  01C6  0833               	movf	??___flmul+1,w
  1592  01C7  1103               	clrz
  1593  01C8  1803               	skipnc
  1594  01C9  3E01               	addlw	1
  1595  01CA  1903               	skipnz
  1596  01CB  29CD               	goto	u951
  1597  01CC  07B9               	addwf	___flmul@grs+1,f
  1598  01CD                     u951:
  1599  01CD  0834               	movf	??___flmul+2,w
  1600  01CE  1103               	clrz
  1601  01CF  1803               	skipnc
  1602  01D0  3E01               	addlw	1
  1603  01D1  1903               	skipnz
  1604  01D2  29D4               	goto	u952
  1605  01D3  07BA               	addwf	___flmul@grs+2,f
  1606  01D4                     u952:
  1607  01D4  0835               	movf	??___flmul+3,w
  1608  01D5  1103               	clrz
  1609  01D6  1803               	skipnc
  1610  01D7  3E01               	addlw	1
  1611  01D8  1903               	skipnz
  1612  01D9  29DB               	goto	u953
  1613  01DA  07BB               	addwf	___flmul@grs+3,f
  1614  01DB                     u953:
  1615  01DB                     l1094:
  1616  01DB  082B               	movf	___flmul@b+1,w
  1617  01DC  00B2               	movwf	??___flmul
  1618  01DD  0832               	movf	??___flmul,w
  1619  01DE  00F3               	movwf	__Umul8_16@multiplicand
  1620  01DF  0830               	movf	___flmul@a+2,w
  1621  01E0  120A  118A  25AD  120A  118A  	fcall	__Umul8_16
  1622  01E5  0874               	movf	?__Umul8_16+1,w
  1623  01E6  1283               	bcf	3,5	;RP0=0, select bank0
  1624  01E7  1303               	bcf	3,6	;RP1=0, select bank0
  1625  01E8  00C3               	movwf	___flmul@temp+1
  1626  01E9  0873               	movf	?__Umul8_16,w
  1627  01EA  00C2               	movwf	___flmul@temp
  1628  01EB  0842               	movf	___flmul@temp,w
  1629  01EC  00B2               	movwf	??___flmul
  1630  01ED  0843               	movf	___flmul@temp+1,w
  1631  01EE  00B3               	movwf	??___flmul+1
  1632  01EF  01B4               	clrf	??___flmul+2
  1633  01F0  01B5               	clrf	??___flmul+3
  1634  01F1  0832               	movf	??___flmul,w
  1635  01F2  07BE               	addwf	___flmul@prod,f
  1636  01F3  0833               	movf	??___flmul+1,w
  1637  01F4  1103               	clrz
  1638  01F5  1803               	skipnc
  1639  01F6  3E01               	addlw	1
  1640  01F7  1903               	skipnz
  1641  01F8  29FA               	goto	u961
  1642  01F9  07BF               	addwf	___flmul@prod+1,f
  1643  01FA                     u961:
  1644  01FA  0834               	movf	??___flmul+2,w
  1645  01FB  1103               	clrz
  1646  01FC  1803               	skipnc
  1647  01FD  3E01               	addlw	1
  1648  01FE  1903               	skipnz
  1649  01FF  2A01               	goto	u962
  1650  0200  07C0               	addwf	___flmul@prod+2,f
  1651  0201                     u962:
  1652  0201  0835               	movf	??___flmul+3,w
  1653  0202  1103               	clrz
  1654  0203  1803               	skipnc
  1655  0204  3E01               	addlw	1
  1656  0205  1903               	skipnz
  1657  0206  2A08               	goto	u963
  1658  0207  07C1               	addwf	___flmul@prod+3,f
  1659  0208                     u963:
  1660  0208                     l1096:
  1661  0208  082C               	movf	___flmul@b+2,w
  1662  0209  00B2               	movwf	??___flmul
  1663  020A  0832               	movf	??___flmul,w
  1664  020B  00F3               	movwf	__Umul8_16@multiplicand
  1665  020C  082F               	movf	___flmul@a+1,w
  1666  020D  120A  118A  25AD  120A  118A  	fcall	__Umul8_16
  1667  0212  0874               	movf	?__Umul8_16+1,w
  1668  0213  1283               	bcf	3,5	;RP0=0, select bank0
  1669  0214  1303               	bcf	3,6	;RP1=0, select bank0
  1670  0215  00C3               	movwf	___flmul@temp+1
  1671  0216  0873               	movf	?__Umul8_16,w
  1672  0217  00C2               	movwf	___flmul@temp
  1673  0218                     l1098:
  1674  0218  0842               	movf	___flmul@temp,w
  1675  0219  00B2               	movwf	??___flmul
  1676  021A  0843               	movf	___flmul@temp+1,w
  1677  021B  00B3               	movwf	??___flmul+1
  1678  021C  01B4               	clrf	??___flmul+2
  1679  021D  01B5               	clrf	??___flmul+3
  1680  021E  0832               	movf	??___flmul,w
  1681  021F  07BE               	addwf	___flmul@prod,f
  1682  0220  0833               	movf	??___flmul+1,w
  1683  0221  1103               	clrz
  1684  0222  1803               	skipnc
  1685  0223  3E01               	addlw	1
  1686  0224  1903               	skipnz
  1687  0225  2A27               	goto	u971
  1688  0226  07BF               	addwf	___flmul@prod+1,f
  1689  0227                     u971:
  1690  0227  0834               	movf	??___flmul+2,w
  1691  0228  1103               	clrz
  1692  0229  1803               	skipnc
  1693  022A  3E01               	addlw	1
  1694  022B  1903               	skipnz
  1695  022C  2A2E               	goto	u972
  1696  022D  07C0               	addwf	___flmul@prod+2,f
  1697  022E                     u972:
  1698  022E  0835               	movf	??___flmul+3,w
  1699  022F  1103               	clrz
  1700  0230  1803               	skipnc
  1701  0231  3E01               	addlw	1
  1702  0232  1903               	skipnz
  1703  0233  2A35               	goto	u973
  1704  0234  07C1               	addwf	___flmul@prod+3,f
  1705  0235                     u973:
  1706  0235  082C               	movf	___flmul@b+2,w
  1707  0236  00B2               	movwf	??___flmul
  1708  0237  0832               	movf	??___flmul,w
  1709  0238  00F3               	movwf	__Umul8_16@multiplicand
  1710  0239  0830               	movf	___flmul@a+2,w
  1711  023A  120A  118A  25AD  120A  118A  	fcall	__Umul8_16
  1712  023F  0874               	movf	?__Umul8_16+1,w
  1713  0240  1283               	bcf	3,5	;RP0=0, select bank0
  1714  0241  1303               	bcf	3,6	;RP1=0, select bank0
  1715  0242  00C3               	movwf	___flmul@temp+1
  1716  0243  0873               	movf	?__Umul8_16,w
  1717  0244  00C2               	movwf	___flmul@temp
  1718  0245                     l1100:
  1719  0245  0842               	movf	___flmul@temp,w
  1720  0246  00B2               	movwf	??___flmul
  1721  0247  0843               	movf	___flmul@temp+1,w
  1722  0248  00B3               	movwf	??___flmul+1
  1723  0249  01B4               	clrf	??___flmul+2
  1724  024A  01B5               	clrf	??___flmul+3
  1725  024B  3008               	movlw	8
  1726  024C                     u985:
  1727  024C  1003               	clrc
  1728  024D  0DB2               	rlf	??___flmul,f
  1729  024E  0DB3               	rlf	??___flmul+1,f
  1730  024F  0DB4               	rlf	??___flmul+2,f
  1731  0250  0DB5               	rlf	??___flmul+3,f
  1732  0251                     u980:
  1733  0251  3EFF               	addlw	-1
  1734  0252  1D03               	skipz
  1735  0253  2A4C               	goto	u985
  1736  0254  0832               	movf	??___flmul,w
  1737  0255  07BE               	addwf	___flmul@prod,f
  1738  0256  0833               	movf	??___flmul+1,w
  1739  0257  1103               	clrz
  1740  0258  1803               	skipnc
  1741  0259  3E01               	addlw	1
  1742  025A  1903               	skipnz
  1743  025B  2A5D               	goto	u991
  1744  025C  07BF               	addwf	___flmul@prod+1,f
  1745  025D                     u991:
  1746  025D  0834               	movf	??___flmul+2,w
  1747  025E  1103               	clrz
  1748  025F  1803               	skipnc
  1749  0260  3E01               	addlw	1
  1750  0261  1903               	skipnz
  1751  0262  2A64               	goto	u992
  1752  0263  07C0               	addwf	___flmul@prod+2,f
  1753  0264                     u992:
  1754  0264  0835               	movf	??___flmul+3,w
  1755  0265  1103               	clrz
  1756  0266  1803               	skipnc
  1757  0267  3E01               	addlw	1
  1758  0268  1903               	skipnz
  1759  0269  2A6B               	goto	u993
  1760  026A  07C1               	addwf	___flmul@prod+3,f
  1761  026B                     u993:
  1762  026B                     l1102:
  1763  026B  0838               	movf	___flmul@grs,w
  1764  026C  00B2               	movwf	??___flmul
  1765  026D  0839               	movf	___flmul@grs+1,w
  1766  026E  00B3               	movwf	??___flmul+1
  1767  026F  083A               	movf	___flmul@grs+2,w
  1768  0270  00B4               	movwf	??___flmul+2
  1769  0271  083B               	movf	___flmul@grs+3,w
  1770  0272  00B5               	movwf	??___flmul+3
  1771  0273  3018               	movlw	24
  1772  0274                     u1005:
  1773  0274  1003               	clrc
  1774  0275  0CB5               	rrf	??___flmul+3,f
  1775  0276  0CB4               	rrf	??___flmul+2,f
  1776  0277  0CB3               	rrf	??___flmul+1,f
  1777  0278  0CB2               	rrf	??___flmul,f
  1778  0279                     u1000:
  1779  0279  3EFF               	addlw	-1
  1780  027A  1D03               	skipz
  1781  027B  2A74               	goto	u1005
  1782  027C  0832               	movf	??___flmul,w
  1783  027D  07BE               	addwf	___flmul@prod,f
  1784  027E  0833               	movf	??___flmul+1,w
  1785  027F  1103               	clrz
  1786  0280  1803               	skipnc
  1787  0281  3E01               	addlw	1
  1788  0282  1903               	skipnz
  1789  0283  2A85               	goto	u1011
  1790  0284  07BF               	addwf	___flmul@prod+1,f
  1791  0285                     u1011:
  1792  0285  0834               	movf	??___flmul+2,w
  1793  0286  1103               	clrz
  1794  0287  1803               	skipnc
  1795  0288  3E01               	addlw	1
  1796  0289  1903               	skipnz
  1797  028A  2A8C               	goto	u1012
  1798  028B  07C0               	addwf	___flmul@prod+2,f
  1799  028C                     u1012:
  1800  028C  0835               	movf	??___flmul+3,w
  1801  028D  1103               	clrz
  1802  028E  1803               	skipnc
  1803  028F  3E01               	addlw	1
  1804  0290  1903               	skipnz
  1805  0291  2A93               	goto	u1013
  1806  0292  07C1               	addwf	___flmul@prod+3,f
  1807  0293                     u1013:
  1808  0293                     l1104:
  1809  0293  3008               	movlw	8
  1810  0294  00B2               	movwf	??___flmul
  1811  0295                     u1025:
  1812  0295  1003               	clrc
  1813  0296  0DB8               	rlf	___flmul@grs,f
  1814  0297  0DB9               	rlf	___flmul@grs+1,f
  1815  0298  0DBA               	rlf	___flmul@grs+2,f
  1816  0299  0DBB               	rlf	___flmul@grs+3,f
  1817  029A  0BB2               	decfsz	??___flmul,f
  1818  029B  2A95               	goto	u1025
  1819  029C                     l1106:
  1820  029C  083D               	movf	___flmul@bexp,w
  1821  029D  073C               	addwf	___flmul@aexp,w
  1822  029E  00B2               	movwf	??___flmul
  1823  029F  01B3               	clrf	??___flmul+1
  1824  02A0  0DB3               	rlf	??___flmul+1,f
  1825  02A1  0832               	movf	??___flmul,w
  1826  02A2  3E82               	addlw	130
  1827  02A3  00C2               	movwf	___flmul@temp
  1828  02A4  0833               	movf	??___flmul+1,w
  1829  02A5  1803               	skipnc
  1830  02A6  3E01               	addlw	1
  1831  02A7  3EFF               	addlw	255
  1832  02A8  00C3               	movwf	___flmul@temp+1
  1833  02A9  2AC7               	goto	l1118
  1834  02AA                     l1108:
  1835  02AA  3001               	movlw	1
  1836  02AB  00B2               	movwf	??___flmul
  1837  02AC                     u1035:
  1838  02AC  1003               	clrc
  1839  02AD  0DBE               	rlf	___flmul@prod,f
  1840  02AE  0DBF               	rlf	___flmul@prod+1,f
  1841  02AF  0DC0               	rlf	___flmul@prod+2,f
  1842  02B0  0DC1               	rlf	___flmul@prod+3,f
  1843  02B1  0BB2               	decfsz	??___flmul,f
  1844  02B2  2AAC               	goto	u1035
  1845  02B3                     l1110:
  1846  02B3  1FBB               	btfss	___flmul@grs+3,7
  1847  02B4  2AB6               	goto	u1041
  1848  02B5  2AB7               	goto	u1040
  1849  02B6                     u1041:
  1850  02B6  2AB8               	goto	l1114
  1851  02B7                     u1040:
  1852  02B7                     l1112:
  1853  02B7  143E               	bsf	___flmul@prod,0
  1854  02B8                     l1114:
  1855  02B8  3001               	movlw	1
  1856  02B9  00B2               	movwf	??___flmul
  1857  02BA                     u1055:
  1858  02BA  1003               	clrc
  1859  02BB  0DB8               	rlf	___flmul@grs,f
  1860  02BC  0DB9               	rlf	___flmul@grs+1,f
  1861  02BD  0DBA               	rlf	___flmul@grs+2,f
  1862  02BE  0DBB               	rlf	___flmul@grs+3,f
  1863  02BF  0BB2               	decfsz	??___flmul,f
  1864  02C0  2ABA               	goto	u1055
  1865  02C1                     l1116:
  1866  02C1  30FF               	movlw	255
  1867  02C2  07C2               	addwf	___flmul@temp,f
  1868  02C3  1803               	skipnc
  1869  02C4  0AC3               	incf	___flmul@temp+1,f
  1870  02C5  30FF               	movlw	255
  1871  02C6  07C3               	addwf	___flmul@temp+1,f
  1872  02C7                     l1118:
  1873  02C7  1FC0               	btfss	___flmul@prod+2,7
  1874  02C8  2ACA               	goto	u1061
  1875  02C9  2ACB               	goto	u1060
  1876  02CA                     u1061:
  1877  02CA  2AAA               	goto	l1108
  1878  02CB                     u1060:
  1879  02CB                     l1120:
  1880  02CB  01BC               	clrf	___flmul@aexp
  1881  02CC                     l1122:
  1882  02CC  1FBB               	btfss	___flmul@grs+3,7
  1883  02CD  2ACF               	goto	u1071
  1884  02CE  2AD0               	goto	u1070
  1885  02CF                     u1071:
  1886  02CF  2AEC               	goto	l1130
  1887  02D0                     u1070:
  1888  02D0                     l1124:
  1889  02D0  30FF               	movlw	255
  1890  02D1  0538               	andwf	___flmul@grs,w
  1891  02D2  00B2               	movwf	??___flmul
  1892  02D3  30FF               	movlw	255
  1893  02D4  0539               	andwf	___flmul@grs+1,w
  1894  02D5  00B3               	movwf	??___flmul+1
  1895  02D6  30FF               	movlw	255
  1896  02D7  053A               	andwf	___flmul@grs+2,w
  1897  02D8  00B4               	movwf	??___flmul+2
  1898  02D9  307F               	movlw	127
  1899  02DA  053B               	andwf	___flmul@grs+3,w
  1900  02DB  00B5               	movwf	??___flmul+3
  1901  02DC  0835               	movf	??___flmul+3,w
  1902  02DD  0434               	iorwf	??___flmul+2,w
  1903  02DE  0433               	iorwf	??___flmul+1,w
  1904  02DF  0432               	iorwf	??___flmul,w
  1905  02E0  1903               	skipnz
  1906  02E1  2AE3               	goto	u1081
  1907  02E2  2AE4               	goto	u1080
  1908  02E3                     u1081:
  1909  02E3  2AE7               	goto	l553
  1910  02E4                     u1080:
  1911  02E4                     l1126:
  1912  02E4  01BC               	clrf	___flmul@aexp
  1913  02E5  0ABC               	incf	___flmul@aexp,f
  1914  02E6  2AEC               	goto	l1130
  1915  02E7                     l553:
  1916  02E7  1C3E               	btfss	___flmul@prod,0
  1917  02E8  2AEA               	goto	u1091
  1918  02E9  2AEB               	goto	u1090
  1919  02EA                     u1091:
  1920  02EA  2AEC               	goto	l1130
  1921  02EB                     u1090:
  1922  02EB  2AE4               	goto	l1126
  1923  02EC                     l1130:
  1924  02EC  083C               	movf	___flmul@aexp,w
  1925  02ED  1903               	btfsc	3,2
  1926  02EE  2AF0               	goto	u1101
  1927  02EF  2AF1               	goto	u1100
  1928  02F0                     u1101:
  1929  02F0  2B22               	goto	l1140
  1930  02F1                     u1100:
  1931  02F1                     l1132:
  1932  02F1  3001               	movlw	1
  1933  02F2  07BE               	addwf	___flmul@prod,f
  1934  02F3  3000               	movlw	0
  1935  02F4  1803               	skipnc
  1936  02F5  3001               	movlw	1
  1937  02F6  07BF               	addwf	___flmul@prod+1,f
  1938  02F7  3000               	movlw	0
  1939  02F8  1803               	skipnc
  1940  02F9  3001               	movlw	1
  1941  02FA  07C0               	addwf	___flmul@prod+2,f
  1942  02FB  3000               	movlw	0
  1943  02FC  1803               	skipnc
  1944  02FD  3001               	movlw	1
  1945  02FE  07C1               	addwf	___flmul@prod+3,f
  1946  02FF                     l1134:
  1947  02FF  1C41               	btfss	___flmul@prod+3,0
  1948  0300  2B02               	goto	u1111
  1949  0301  2B03               	goto	u1110
  1950  0302                     u1111:
  1951  0302  2B22               	goto	l1140
  1952  0303                     u1110:
  1953  0303                     l1136:
  1954  0303  083E               	movf	___flmul@prod,w
  1955  0304  00B2               	movwf	??___flmul
  1956  0305  083F               	movf	___flmul@prod+1,w
  1957  0306  00B3               	movwf	??___flmul+1
  1958  0307  0840               	movf	___flmul@prod+2,w
  1959  0308  00B4               	movwf	??___flmul+2
  1960  0309  0841               	movf	___flmul@prod+3,w
  1961  030A  00B5               	movwf	??___flmul+3
  1962  030B  3001               	movlw	1
  1963  030C  00B6               	movwf	??___flmul+4
  1964  030D                     u1125:
  1965  030D  0D35               	rlf	??___flmul+3,w
  1966  030E  0CB5               	rrf	??___flmul+3,f
  1967  030F  0CB4               	rrf	??___flmul+2,f
  1968  0310  0CB3               	rrf	??___flmul+1,f
  1969  0311  0CB2               	rrf	??___flmul,f
  1970  0312                     u1120:
  1971  0312  0BB6               	decfsz	??___flmul+4,f
  1972  0313  2B0D               	goto	u1125
  1973  0314  0835               	movf	??___flmul+3,w
  1974  0315  00C1               	movwf	___flmul@prod+3
  1975  0316  0834               	movf	??___flmul+2,w
  1976  0317  00C0               	movwf	___flmul@prod+2
  1977  0318  0833               	movf	??___flmul+1,w
  1978  0319  00BF               	movwf	___flmul@prod+1
  1979  031A  0832               	movf	??___flmul,w
  1980  031B  00BE               	movwf	___flmul@prod
  1981  031C                     l1138:
  1982  031C  3001               	movlw	1
  1983  031D  07C2               	addwf	___flmul@temp,f
  1984  031E  1803               	skipnc
  1985  031F  0AC3               	incf	___flmul@temp+1,f
  1986  0320  3000               	movlw	0
  1987  0321  07C3               	addwf	___flmul@temp+1,f
  1988  0322                     l1140:
  1989  0322  0843               	movf	___flmul@temp+1,w
  1990  0323  3A80               	xorlw	128
  1991  0324  00FF               	movwf	btemp+1
  1992  0325  3080               	movlw	128
  1993  0326  027F               	subwf	btemp+1,w
  1994  0327  1D03               	skipz
  1995  0328  2B2B               	goto	u1135
  1996  0329  30FF               	movlw	255
  1997  032A  0242               	subwf	___flmul@temp,w
  1998  032B                     u1135:
  1999  032B  1C03               	skipc
  2000  032C  2B2E               	goto	u1131
  2001  032D  2B2F               	goto	u1130
  2002  032E                     u1131:
  2003  032E  2B3A               	goto	l1144
  2004  032F                     u1130:
  2005  032F                     l1142:
  2006  032F  307F               	movlw	127
  2007  0330  1283               	bcf	3,5	;RP0=0, select bank0
  2008  0331  1303               	bcf	3,6	;RP1=0, select bank0
  2009  0332  00C1               	movwf	___flmul@prod+3
  2010  0333  3080               	movlw	128
  2011  0334  00C0               	movwf	___flmul@prod+2
  2012  0335  3000               	movlw	0
  2013  0336  00BF               	movwf	___flmul@prod+1
  2014  0337  3000               	movlw	0
  2015  0338  00BE               	movwf	___flmul@prod
  2016  0339  2B6F               	goto	l559
  2017  033A                     l1144:
  2018  033A  1283               	bcf	3,5	;RP0=0, select bank0
  2019  033B  1303               	bcf	3,6	;RP1=0, select bank0
  2020  033C  0843               	movf	___flmul@temp+1,w
  2021  033D  3A80               	xorlw	128
  2022  033E  00FF               	movwf	btemp+1
  2023  033F  3080               	movlw	128
  2024  0340  027F               	subwf	btemp+1,w
  2025  0341  1D03               	skipz
  2026  0342  2B45               	goto	u1145
  2027  0343  3001               	movlw	1
  2028  0344  0242               	subwf	___flmul@temp,w
  2029  0345                     u1145:
  2030  0345  1803               	skipnc
  2031  0346  2B48               	goto	u1141
  2032  0347  2B49               	goto	u1140
  2033  0348                     u1141:
  2034  0348  2B55               	goto	l1150
  2035  0349                     u1140:
  2036  0349                     l1146:
  2037  0349  3000               	movlw	0
  2038  034A  1283               	bcf	3,5	;RP0=0, select bank0
  2039  034B  1303               	bcf	3,6	;RP1=0, select bank0
  2040  034C  00C1               	movwf	___flmul@prod+3
  2041  034D  3000               	movlw	0
  2042  034E  00C0               	movwf	___flmul@prod+2
  2043  034F  3000               	movlw	0
  2044  0350  00BF               	movwf	___flmul@prod+1
  2045  0351  3000               	movlw	0
  2046  0352  00BE               	movwf	___flmul@prod
  2047  0353                     l1148:
  2048  0353  01B7               	clrf	___flmul@sign
  2049  0354  2B6F               	goto	l559
  2050  0355                     l1150:
  2051  0355  1283               	bcf	3,5	;RP0=0, select bank0
  2052  0356  1303               	bcf	3,6	;RP1=0, select bank0
  2053  0357  0842               	movf	___flmul@temp,w
  2054  0358  00B2               	movwf	??___flmul
  2055  0359  0832               	movf	??___flmul,w
  2056  035A  00BD               	movwf	___flmul@bexp
  2057  035B  30FF               	movlw	255
  2058  035C  05BE               	andwf	___flmul@prod,f
  2059  035D  30FF               	movlw	255
  2060  035E  05BF               	andwf	___flmul@prod+1,f
  2061  035F  307F               	movlw	127
  2062  0360  05C0               	andwf	___flmul@prod+2,f
  2063  0361  3000               	movlw	0
  2064  0362  05C1               	andwf	___flmul@prod+3,f
  2065  0363                     l1152:
  2066  0363  1C3D               	btfss	___flmul@bexp,0
  2067  0364  2B66               	goto	u1151
  2068  0365  2B67               	goto	u1150
  2069  0366                     u1151:
  2070  0366  2B68               	goto	l1156
  2071  0367                     u1150:
  2072  0367                     l1154:
  2073  0367  17C0               	bsf	___flmul@prod+2,7
  2074  0368                     l1156:
  2075  0368  083D               	movf	___flmul@bexp,w
  2076  0369  00B2               	movwf	??___flmul
  2077  036A  1003               	clrc
  2078  036B  0C32               	rrf	??___flmul,w
  2079  036C  00B3               	movwf	??___flmul+1
  2080  036D  0833               	movf	??___flmul+1,w
  2081  036E  00C1               	movwf	___flmul@prod+3
  2082  036F                     l559:
  2083  036F  0837               	movf	___flmul@sign,w
  2084  0370  00B2               	movwf	??___flmul
  2085  0371  0832               	movf	??___flmul,w
  2086  0372  04C1               	iorwf	___flmul@prod+3,f
  2087  0373                     l1158:
  2088  0373  0841               	movf	___flmul@prod+3,w
  2089  0374  00AD               	movwf	?___flmul+3
  2090  0375  0840               	movf	___flmul@prod+2,w
  2091  0376  00AC               	movwf	?___flmul+2
  2092  0377  083F               	movf	___flmul@prod+1,w
  2093  0378  00AB               	movwf	?___flmul+1
  2094  0379  083E               	movf	___flmul@prod,w
  2095  037A  00AA               	movwf	?___flmul
  2096  037B                     l547:
  2097  037B  0008               	return
  2098  037C                     __end_of___flmul:
  2099                           
  2100                           	psect	text4
  2101  05AD                     __ptext4:	
  2102 ;; *************** function __Umul8_16 *****************
  2103 ;; Defined at:
  2104 ;;		line 4 in file "C:\Program Files\Microchip\xc8\v2.31\pic\sources\c90\common\Umul8_16.c"
  2105 ;; Parameters:    Size  Location     Type
  2106 ;;  multiplier      1    wreg     unsigned char 
  2107 ;;  multiplicand    1    3[COMMON] unsigned char 
  2108 ;; Auto vars:     Size  Location     Type
  2109 ;;  multiplier      1    4[BANK0 ] unsigned char 
  2110 ;;  word_mpld       2    2[BANK0 ] unsigned int 
  2111 ;;  product         2    0[BANK0 ] unsigned int 
  2112 ;; Return value:  Size  Location     Type
  2113 ;;                  2    3[COMMON] unsigned int 
  2114 ;; Registers used:
  2115 ;;		wreg, status,2, status,0
  2116 ;; Tracked objects:
  2117 ;;		On entry : 0/0
  2118 ;;		On exit  : 0/0
  2119 ;;		Unchanged: 0/0
  2120 ;; Data sizes:     COMMON   BANK0   BANK1   BANK3   BANK2
  2121 ;;      Params:         2       0       0       0       0
  2122 ;;      Locals:         0       5       0       0       0
  2123 ;;      Temps:          2       0       0       0       0
  2124 ;;      Totals:         4       5       0       0       0
  2125 ;;Total ram usage:        9 bytes
  2126 ;; Hardware stack levels used:    1
  2127 ;; Hardware stack levels required when called:    1
  2128 ;; This function calls:
  2129 ;;		Nothing
  2130 ;; This function is called by:
  2131 ;;		___flmul
  2132 ;; This function uses a non-reentrant model
  2133 ;;
  2134                           
  2135                           
  2136                           ;psect for function __Umul8_16
  2137  05AD                     __Umul8_16:
  2138                           
  2139                           ;incstack = 0
  2140                           ; Regs used in __Umul8_16: [wreg+status,2+status,0]
  2141                           ;__Umul8_16@multiplier stored from wreg
  2142  05AD  1283               	bcf	3,5	;RP0=0, select bank0
  2143  05AE  1303               	bcf	3,6	;RP1=0, select bank0
  2144  05AF  00A4               	movwf	__Umul8_16@multiplier
  2145  05B0                     l960:
  2146  05B0  01A0               	clrf	__Umul8_16@product
  2147  05B1  01A1               	clrf	__Umul8_16@product+1
  2148  05B2                     l962:
  2149  05B2  0873               	movf	__Umul8_16@multiplicand,w
  2150  05B3  00F5               	movwf	??__Umul8_16
  2151  05B4  01F6               	clrf	??__Umul8_16+1
  2152  05B5  0875               	movf	??__Umul8_16,w
  2153  05B6  00A2               	movwf	__Umul8_16@word_mpld
  2154  05B7  0876               	movf	??__Umul8_16+1,w
  2155  05B8  00A3               	movwf	__Umul8_16@word_mpld+1
  2156  05B9                     l964:
  2157  05B9  1C24               	btfss	__Umul8_16@multiplier,0
  2158  05BA  2DBC               	goto	u681
  2159  05BB  2DBD               	goto	u680
  2160  05BC                     u681:
  2161  05BC  2DC3               	goto	l566
  2162  05BD                     u680:
  2163  05BD                     l966:
  2164  05BD  0822               	movf	__Umul8_16@word_mpld,w
  2165  05BE  07A0               	addwf	__Umul8_16@product,f
  2166  05BF  1803               	skipnc
  2167  05C0  0AA1               	incf	__Umul8_16@product+1,f
  2168  05C1  0823               	movf	__Umul8_16@word_mpld+1,w
  2169  05C2  07A1               	addwf	__Umul8_16@product+1,f
  2170  05C3                     l566:
  2171  05C3  3001               	movlw	1
  2172  05C4                     u695:
  2173  05C4  1003               	clrc
  2174  05C5  0DA2               	rlf	__Umul8_16@word_mpld,f
  2175  05C6  0DA3               	rlf	__Umul8_16@word_mpld+1,f
  2176  05C7  3EFF               	addlw	-1
  2177  05C8  1D03               	skipz
  2178  05C9  2DC4               	goto	u695
  2179  05CA  1003               	clrc
  2180  05CB  0CA4               	rrf	__Umul8_16@multiplier,f
  2181  05CC                     l968:
  2182  05CC  0824               	movf	__Umul8_16@multiplier,w
  2183  05CD  1D03               	btfss	3,2
  2184  05CE  2DD0               	goto	u701
  2185  05CF  2DD1               	goto	u700
  2186  05D0                     u701:
  2187  05D0  2DB9               	goto	l964
  2188  05D1                     u700:
  2189  05D1                     l970:
  2190  05D1  0821               	movf	__Umul8_16@product+1,w
  2191  05D2  00F4               	movwf	?__Umul8_16+1
  2192  05D3  0820               	movf	__Umul8_16@product,w
  2193  05D4  00F3               	movwf	?__Umul8_16
  2194  05D5                     l568:
  2195  05D5  0008               	return
  2196  05D6                     __end_of__Umul8_16:
  2197                           
  2198                           	psect	text5
  2199  0509                     __ptext5:	
  2200 ;; *************** function ___flge *****************
  2201 ;; Defined at:
  2202 ;;		line 4 in file "C:\Program Files\Microchip\xc8\v2.31\pic\sources\c90\common\flge.c"
  2203 ;; Parameters:    Size  Location     Type
  2204 ;;  ff1             4    0[BANK0 ] unsigned int 
  2205 ;;  ff2             4    4[BANK0 ] unsigned int 
  2206 ;; Auto vars:     Size  Location     Type
  2207 ;;		None
  2208 ;; Return value:  Size  Location     Type
  2209 ;;		None               void
  2210 ;; Registers used:
  2211 ;;		wreg, status,2, status,0
  2212 ;; Tracked objects:
  2213 ;;		On entry : 0/0
  2214 ;;		On exit  : 0/0
  2215 ;;		Unchanged: 0/0
  2216 ;; Data sizes:     COMMON   BANK0   BANK1   BANK3   BANK2
  2217 ;;      Params:         0       8       0       0       0
  2218 ;;      Locals:         0       0       0       0       0
  2219 ;;      Temps:          4       0       0       0       0
  2220 ;;      Totals:         4       8       0       0       0
  2221 ;;Total ram usage:       12 bytes
  2222 ;; Hardware stack levels used:    1
  2223 ;; Hardware stack levels required when called:    1
  2224 ;; This function calls:
  2225 ;;		Nothing
  2226 ;; This function is called by:
  2227 ;;		_main
  2228 ;; This function uses a non-reentrant model
  2229 ;;
  2230                           
  2231                           
  2232                           ;psect for function ___flge
  2233  0509                     ___flge:
  2234  0509                     l1236:	
  2235                           ;incstack = 0
  2236                           ; Regs used in ___flge: [wreg+status,2+status,0]
  2237                           
  2238  0509  3000               	movlw	0
  2239  050A  1283               	bcf	3,5	;RP0=0, select bank0
  2240  050B  1303               	bcf	3,6	;RP1=0, select bank0
  2241  050C  0520               	andwf	___flge@ff1,w
  2242  050D  00F3               	movwf	??___flge
  2243  050E  3000               	movlw	0
  2244  050F  0521               	andwf	___flge@ff1+1,w
  2245  0510  00F4               	movwf	??___flge+1
  2246  0511  3080               	movlw	128
  2247  0512  0522               	andwf	___flge@ff1+2,w
  2248  0513  00F5               	movwf	??___flge+2
  2249  0514  307F               	movlw	127
  2250  0515  0523               	andwf	___flge@ff1+3,w
  2251  0516  00F6               	movwf	??___flge+3
  2252  0517  0876               	movf	??___flge+3,w
  2253  0518  0475               	iorwf	??___flge+2,w
  2254  0519  0474               	iorwf	??___flge+1,w
  2255  051A  0473               	iorwf	??___flge,w
  2256  051B  1D03               	skipz
  2257  051C  2D1E               	goto	u1341
  2258  051D  2D1F               	goto	u1340
  2259  051E                     u1341:
  2260  051E  2D27               	goto	l332
  2261  051F                     u1340:
  2262  051F                     l1238:
  2263  051F  3000               	movlw	0
  2264  0520  00A3               	movwf	___flge@ff1+3
  2265  0521  3000               	movlw	0
  2266  0522  00A2               	movwf	___flge@ff1+2
  2267  0523  3000               	movlw	0
  2268  0524  00A1               	movwf	___flge@ff1+1
  2269  0525  3000               	movlw	0
  2270  0526  00A0               	movwf	___flge@ff1
  2271  0527                     l332:
  2272  0527  3000               	movlw	0
  2273  0528  0524               	andwf	___flge@ff2,w
  2274  0529  00F3               	movwf	??___flge
  2275  052A  3000               	movlw	0
  2276  052B  0525               	andwf	___flge@ff2+1,w
  2277  052C  00F4               	movwf	??___flge+1
  2278  052D  3080               	movlw	128
  2279  052E  0526               	andwf	___flge@ff2+2,w
  2280  052F  00F5               	movwf	??___flge+2
  2281  0530  307F               	movlw	127
  2282  0531  0527               	andwf	___flge@ff2+3,w
  2283  0532  00F6               	movwf	??___flge+3
  2284  0533  0876               	movf	??___flge+3,w
  2285  0534  0475               	iorwf	??___flge+2,w
  2286  0535  0474               	iorwf	??___flge+1,w
  2287  0536  0473               	iorwf	??___flge,w
  2288  0537  1D03               	skipz
  2289  0538  2D3A               	goto	u1351
  2290  0539  2D3B               	goto	u1350
  2291  053A                     u1351:
  2292  053A  2D43               	goto	l1242
  2293  053B                     u1350:
  2294  053B                     l1240:
  2295  053B  3000               	movlw	0
  2296  053C  00A7               	movwf	___flge@ff2+3
  2297  053D  3000               	movlw	0
  2298  053E  00A6               	movwf	___flge@ff2+2
  2299  053F  3000               	movlw	0
  2300  0540  00A5               	movwf	___flge@ff2+1
  2301  0541  3000               	movlw	0
  2302  0542  00A4               	movwf	___flge@ff2
  2303  0543                     l1242:
  2304  0543  1FA3               	btfss	___flge@ff1+3,7
  2305  0544  2D46               	goto	u1361
  2306  0545  2D47               	goto	u1360
  2307  0546                     u1361:
  2308  0546  2D6B               	goto	l1246
  2309  0547                     u1360:
  2310  0547                     l1244:
  2311  0547  3000               	movlw	0
  2312  0548  00F3               	movwf	??___flge
  2313  0549  3000               	movlw	0
  2314  054A  00F4               	movwf	??___flge+1
  2315  054B  3000               	movlw	0
  2316  054C  00F5               	movwf	??___flge+2
  2317  054D  3080               	movlw	128
  2318  054E  00F6               	movwf	??___flge+3
  2319  054F  0820               	movf	___flge@ff1,w
  2320  0550  02F3               	subwf	??___flge,f
  2321  0551  0821               	movf	___flge@ff1+1,w
  2322  0552  1C03               	skipc
  2323  0553  0F21               	incfsz	___flge@ff1+1,w
  2324  0554  2D56               	goto	u1371
  2325  0555  2D57               	goto	u1372
  2326  0556                     u1371:
  2327  0556  02F4               	subwf	??___flge+1,f
  2328  0557                     u1372:
  2329  0557  0822               	movf	___flge@ff1+2,w
  2330  0558  1C03               	skipc
  2331  0559  0F22               	incfsz	___flge@ff1+2,w
  2332  055A  2D5C               	goto	u1373
  2333  055B  2D5D               	goto	u1374
  2334  055C                     u1373:
  2335  055C  02F5               	subwf	??___flge+2,f
  2336  055D                     u1374:
  2337  055D  0823               	movf	___flge@ff1+3,w
  2338  055E  1C03               	skipc
  2339  055F  0F23               	incfsz	___flge@ff1+3,w
  2340  0560  2D62               	goto	u1375
  2341  0561  2D63               	goto	u1376
  2342  0562                     u1375:
  2343  0562  02F6               	subwf	??___flge+3,f
  2344  0563                     u1376:
  2345  0563  0876               	movf	??___flge+3,w
  2346  0564  00A3               	movwf	___flge@ff1+3
  2347  0565  0875               	movf	??___flge+2,w
  2348  0566  00A2               	movwf	___flge@ff1+2
  2349  0567  0874               	movf	??___flge+1,w
  2350  0568  00A1               	movwf	___flge@ff1+1
  2351  0569  0873               	movf	??___flge,w
  2352  056A  00A0               	movwf	___flge@ff1
  2353  056B                     l1246:
  2354  056B  1FA7               	btfss	___flge@ff2+3,7
  2355  056C  2D6E               	goto	u1381
  2356  056D  2D6F               	goto	u1380
  2357  056E                     u1381:
  2358  056E  2D93               	goto	l335
  2359  056F                     u1380:
  2360  056F                     l1248:
  2361  056F  3000               	movlw	0
  2362  0570  00F3               	movwf	??___flge
  2363  0571  3000               	movlw	0
  2364  0572  00F4               	movwf	??___flge+1
  2365  0573  3000               	movlw	0
  2366  0574  00F5               	movwf	??___flge+2
  2367  0575  3080               	movlw	128
  2368  0576  00F6               	movwf	??___flge+3
  2369  0577  0824               	movf	___flge@ff2,w
  2370  0578  02F3               	subwf	??___flge,f
  2371  0579  0825               	movf	___flge@ff2+1,w
  2372  057A  1C03               	skipc
  2373  057B  0F25               	incfsz	___flge@ff2+1,w
  2374  057C  2D7E               	goto	u1391
  2375  057D  2D7F               	goto	u1392
  2376  057E                     u1391:
  2377  057E  02F4               	subwf	??___flge+1,f
  2378  057F                     u1392:
  2379  057F  0826               	movf	___flge@ff2+2,w
  2380  0580  1C03               	skipc
  2381  0581  0F26               	incfsz	___flge@ff2+2,w
  2382  0582  2D84               	goto	u1393
  2383  0583  2D85               	goto	u1394
  2384  0584                     u1393:
  2385  0584  02F5               	subwf	??___flge+2,f
  2386  0585                     u1394:
  2387  0585  0827               	movf	___flge@ff2+3,w
  2388  0586  1C03               	skipc
  2389  0587  0F27               	incfsz	___flge@ff2+3,w
  2390  0588  2D8A               	goto	u1395
  2391  0589  2D8B               	goto	u1396
  2392  058A                     u1395:
  2393  058A  02F6               	subwf	??___flge+3,f
  2394  058B                     u1396:
  2395  058B  0876               	movf	??___flge+3,w
  2396  058C  00A7               	movwf	___flge@ff2+3
  2397  058D  0875               	movf	??___flge+2,w
  2398  058E  00A6               	movwf	___flge@ff2+2
  2399  058F  0874               	movf	??___flge+1,w
  2400  0590  00A5               	movwf	___flge@ff2+1
  2401  0591  0873               	movf	??___flge,w
  2402  0592  00A4               	movwf	___flge@ff2
  2403  0593                     l335:
  2404  0593  3080               	movlw	128
  2405  0594  06A3               	xorwf	___flge@ff1+3,f
  2406  0595  3080               	movlw	128
  2407  0596  06A7               	xorwf	___flge@ff2+3,f
  2408  0597  0827               	movf	___flge@ff2+3,w
  2409  0598  0223               	subwf	___flge@ff1+3,w
  2410  0599  1D03               	skipz
  2411  059A  2DA5               	goto	u1405
  2412  059B  0826               	movf	___flge@ff2+2,w
  2413  059C  0222               	subwf	___flge@ff1+2,w
  2414  059D  1D03               	skipz
  2415  059E  2DA5               	goto	u1405
  2416  059F  0825               	movf	___flge@ff2+1,w
  2417  05A0  0221               	subwf	___flge@ff1+1,w
  2418  05A1  1D03               	skipz
  2419  05A2  2DA5               	goto	u1405
  2420  05A3  0824               	movf	___flge@ff2,w
  2421  05A4  0220               	subwf	___flge@ff1,w
  2422  05A5                     u1405:
  2423  05A5  1803               	skipnc
  2424  05A6  2DA8               	goto	u1401
  2425  05A7  2DA9               	goto	u1400
  2426  05A8                     u1401:
  2427  05A8  2DAB               	goto	l1252
  2428  05A9                     u1400:
  2429  05A9                     l1250:
  2430  05A9  1003               	clrc
  2431  05AA  2DAC               	goto	l336
  2432  05AB                     l1252:
  2433  05AB  1403               	setc
  2434  05AC                     l336:
  2435  05AC  0008               	return
  2436  05AD                     __end_of___flge:
  2437                           
  2438                           	psect	text6
  2439  05D6                     __ptext6:	
  2440 ;; *************** function _LM *****************
  2441 ;; Defined at:
  2442 ;;		line 21 in file "LM35.c"
  2443 ;; Parameters:    Size  Location     Type
  2444 ;;  banderaLM       1    wreg     unsigned char 
  2445 ;; Auto vars:     Size  Location     Type
  2446 ;;  banderaLM       1    4[COMMON] unsigned char 
  2447 ;; Return value:  Size  Location     Type
  2448 ;;                  1    wreg      void 
  2449 ;; Registers used:
  2450 ;;		wreg, status,2, status,0
  2451 ;; Tracked objects:
  2452 ;;		On entry : 0/0
  2453 ;;		On exit  : 0/0
  2454 ;;		Unchanged: 0/0
  2455 ;; Data sizes:     COMMON   BANK0   BANK1   BANK3   BANK2
  2456 ;;      Params:         0       0       0       0       0
  2457 ;;      Locals:         1       0       0       0       0
  2458 ;;      Temps:          1       0       0       0       0
  2459 ;;      Totals:         2       0       0       0       0
  2460 ;;Total ram usage:        2 bytes
  2461 ;; Hardware stack levels used:    1
  2462 ;; Hardware stack levels required when called:    1
  2463 ;; This function calls:
  2464 ;;		Nothing
  2465 ;; This function is called by:
  2466 ;;		_main
  2467 ;; This function uses a non-reentrant model
  2468 ;;
  2469                           
  2470                           
  2471                           ;psect for function _LM
  2472  05D6                     _LM:
  2473                           
  2474                           ;incstack = 0
  2475                           ; Regs used in _LM: [wreg+status,2+status,0]
  2476                           ;LM@banderaLM stored from wreg
  2477  05D6  00F4               	movwf	LM@banderaLM
  2478  05D7                     l986:
  2479                           
  2480                           ;LM35.c: 22:     ADCON1bits.ADFM = 0;
  2481  05D7  1683               	bsf	3,5	;RP0=1, select bank1
  2482  05D8  1303               	bcf	3,6	;RP1=0, select bank1
  2483  05D9  139F               	bcf	31,7	;volatile
  2484  05DA                     l988:
  2485                           
  2486                           ;LM35.c: 23:     INTCON = 0b11101000;
  2487  05DA  30E8               	movlw	232
  2488  05DB  008B               	movwf	11	;volatile
  2489                           
  2490                           ;LM35.c: 25:     ANSEL = 0b00000001;
  2491  05DC  3001               	movlw	1
  2492  05DD  1683               	bsf	3,5	;RP0=1, select bank3
  2493  05DE  1703               	bsf	3,6	;RP1=1, select bank3
  2494  05DF  0088               	movwf	8	;volatile
  2495                           
  2496                           ;LM35.c: 26:     ADCON0 = 0b01000001;
  2497  05E0  3041               	movlw	65
  2498  05E1  1283               	bcf	3,5	;RP0=0, select bank0
  2499  05E2  1303               	bcf	3,6	;RP1=0, select bank0
  2500  05E3  009F               	movwf	31	;volatile
  2501  05E4                     l990:
  2502                           
  2503                           ;LM35.c: 27:     PIE1bits.ADIE = 1;
  2504  05E4  1683               	bsf	3,5	;RP0=1, select bank1
  2505  05E5  1303               	bcf	3,6	;RP1=0, select bank1
  2506  05E6  170C               	bsf	12,6	;volatile
  2507  05E7                     l992:
  2508                           
  2509                           ;LM35.c: 28:     PIR1bits.ADIF = 0;
  2510  05E7  1283               	bcf	3,5	;RP0=0, select bank0
  2511  05E8  1303               	bcf	3,6	;RP1=0, select bank0
  2512  05E9  130C               	bcf	12,6	;volatile
  2513  05EA                     l994:
  2514                           
  2515                           ;LM35.c: 29:     if (banderaLM == 1){
  2516  05EA  0374               	decf	LM@banderaLM,w
  2517  05EB  1D03               	btfss	3,2
  2518  05EC  2DEE               	goto	u711
  2519  05ED  2DEF               	goto	u710
  2520  05EE                     u711:
  2521  05EE  2DF6               	goto	l72
  2522  05EF                     u710:
  2523  05EF                     l996:
  2524                           
  2525                           ;LM35.c: 30:         _delay((unsigned long)((20)*(8000000/4000000.0)));
  2526  05EF  300D               	movlw	13
  2527  05F0  00F3               	movwf	??_LM
  2528  05F1                     u1607:
  2529  05F1  0BF3               	decfsz	??_LM,f
  2530  05F2  2DF1               	goto	u1607
  2531  05F3                     l998:
  2532                           
  2533                           ;LM35.c: 31:         ADCON0bits.GO = 1;
  2534  05F3  1283               	bcf	3,5	;RP0=0, select bank0
  2535  05F4  1303               	bcf	3,6	;RP1=0, select bank0
  2536  05F5  149F               	bsf	31,1	;volatile
  2537  05F6                     l1000:
  2538  05F6                     l72:
  2539  05F6  0008               	return
  2540  05F7                     __end_of_LM:
  2541                           
  2542                           	psect	text7
  2543  05F7                     __ptext7:	
  2544 ;; *************** function _ISR *****************
  2545 ;; Defined at:
  2546 ;;		line 63 in file "main.c"
  2547 ;; Parameters:    Size  Location     Type
  2548 ;;		None
  2549 ;; Auto vars:     Size  Location     Type
  2550 ;;		None
  2551 ;; Return value:  Size  Location     Type
  2552 ;;                  1    wreg      void 
  2553 ;; Registers used:
  2554 ;;		wreg
  2555 ;; Tracked objects:
  2556 ;;		On entry : 0/0
  2557 ;;		On exit  : 0/0
  2558 ;;		Unchanged: 0/0
  2559 ;; Data sizes:     COMMON   BANK0   BANK1   BANK3   BANK2
  2560 ;;      Params:         0       0       0       0       0
  2561 ;;      Locals:         0       0       0       0       0
  2562 ;;      Temps:          3       0       0       0       0
  2563 ;;      Totals:         3       0       0       0       0
  2564 ;;Total ram usage:        3 bytes
  2565 ;; Hardware stack levels used:    1
  2566 ;; This function calls:
  2567 ;;		Nothing
  2568 ;; This function is called by:
  2569 ;;		Interrupt level 1
  2570 ;; This function uses a non-reentrant model
  2571 ;;
  2572                           
  2573                           
  2574                           ;psect for function _ISR
  2575  05F7                     _ISR:
  2576  05F7                     i1l922:
  2577                           
  2578                           ;main.c: 65:         }
  2579  05F7  1283               	bcf	3,5	;RP0=0, select bank0
  2580  05F8  1303               	bcf	3,6	;RP1=0, select bank0
  2581  05F9  1F0C               	btfss	12,6	;volatile
  2582  05FA  2DFC               	goto	u63_21
  2583  05FB  2DFD               	goto	u63_20
  2584  05FC                     u63_21:
  2585  05FC  2E04               	goto	i1l37
  2586  05FD                     u63_20:
  2587  05FD                     i1l924:
  2588                           
  2589                           ;main.c: 66: 
  2590  05FD  01F9               	clrf	_banderaLM
  2591  05FE  0AF9               	incf	_banderaLM,f
  2592  05FF                     i1l926:
  2593  05FF  081E               	movf	30,w	;volatile
  2594  0600  00F0               	movwf	??_ISR
  2595  0601  0870               	movf	??_ISR,w
  2596  0602  00F8               	movwf	_lmm
  2597  0603                     i1l928:
  2598  0603  130C               	bcf	12,6	;volatile
  2599  0604                     i1l37:
  2600  0604  0872               	movf	??_ISR+2,w
  2601  0605  008A               	movwf	10
  2602  0606  0E71               	swapf	??_ISR+1,w
  2603  0607  0083               	movwf	3
  2604  0608  0EFE               	swapf	btemp,f
  2605  0609  0E7E               	swapf	btemp,w
  2606  060A  0009               	retfie
  2607  060B                     __end_of_ISR:
  2608  007E                     btemp	set	126	;btemp
  2609  007E                     wtemp0	set	126
  2610                           
  2611                           	psect	intentry
  2612  0004                     __pintentry:	
  2613                           ;incstack = 0
  2614                           ; Regs used in _ISR: [wreg]
  2615                           
  2616  0004                     interrupt_function:
  2617  007E                     saved_w	set	btemp
  2618  0004  00FE               	movwf	btemp
  2619  0005  0E03               	swapf	3,w
  2620  0006  00F1               	movwf	??_ISR+1
  2621  0007  080A               	movf	10,w
  2622  0008  00F2               	movwf	??_ISR+2
  2623  0009  120A  118A  2DF7   	ljmp	_ISR
  2624                           
  2625                           	psect	config
  2626                           
  2627                           ;Config register CONFIG1 @ 0x2007
  2628                           ;	Oscillator Selection bits
  2629                           ;	FOSC = INTRC_CLKOUT, INTOSC oscillator: CLKOUT function on RA6/OSC2/CLKOUT pin, I/O fu
      +                          nction on RA7/OSC1/CLKIN
  2630                           ;	Watchdog Timer Enable bit
  2631                           ;	WDTE = OFF, WDT disabled and can be enabled by SWDTEN bit of the WDTCON register
  2632                           ;	Power-up Timer Enable bit
  2633                           ;	PWRTE = OFF, PWRT disabled
  2634                           ;	RE3/MCLR pin function select bit
  2635                           ;	MCLRE = OFF, RE3/MCLR pin function is digital input, MCLR internally tied to VDD
  2636                           ;	Code Protection bit
  2637                           ;	CP = OFF, Program memory code protection is disabled
  2638                           ;	Data Code Protection bit
  2639                           ;	CPD = OFF, Data memory code protection is disabled
  2640                           ;	Brown Out Reset Selection bits
  2641                           ;	BOREN = OFF, BOR disabled
  2642                           ;	Internal External Switchover bit
  2643                           ;	IESO = OFF, Internal/External Switchover mode is disabled
  2644                           ;	Fail-Safe Clock Monitor Enabled bit
  2645                           ;	FCMEN = OFF, Fail-Safe Clock Monitor is disabled
  2646                           ;	Low Voltage Programming Enable bit
  2647                           ;	LVP = OFF, RB3 pin has digital I/O, HV on MCLR must be used for programming
  2648                           ;	In-Circuit Debugger Mode bit
  2649                           ;	DEBUG = 0x1, unprogrammed default
  2650  2007                     	org	8199
  2651  2007  20D5               	dw	8405
  2652                           
  2653                           ;Config register CONFIG2 @ 0x2008
  2654                           ;	Brown-out Reset Selection bit
  2655                           ;	BOR4V = BOR40V, Brown-out Reset set to 4.0V
  2656                           ;	Flash Program Memory Self Write Enable bits
  2657                           ;	WRT = OFF, Write protection off
  2658  2008                     	org	8200
  2659  2008  3FFF               	dw	16383

Data Sizes:
    Strings     0
    Constant    0
    Data        0
    BSS         6
    Persistent  1
    Stack       0

Auto Spaces:
    Space          Size  Autos    Used
    COMMON           14      7      10
    BANK0            80     40      44
    BANK1            80      0       0
    BANK3            96      0       0
    BANK2            96      0       0

Pointer List with Targets:

    None.

Critical Paths under _main in COMMON

    _main->___flge
    _main->___xxtofl
    ___flmul->__Umul8_16
    ___flmul->___xxtofl

Critical Paths under _ISR in COMMON

    None.

Critical Paths under _main in BANK0

    _main->___flmul
    ___flmul->___xxtofl

Critical Paths under _ISR in BANK0

    None.

Critical Paths under _main in BANK1

    None.

Critical Paths under _ISR in BANK1

    None.

Critical Paths under _main in BANK3

    None.

Critical Paths under _ISR in BANK3

    None.

Critical Paths under _main in BANK2

    None.

Critical Paths under _ISR in BANK2

    None.

Call Graph Tables:

 ---------------------------------------------------------------------------------
 (Depth) Function   	        Calls       Base Space   Used Autos Params    Refs
 ---------------------------------------------------------------------------------
 (0) _main                                                 4     4      0    3992
                                             36 BANK0      4     4      0
                                 _LM
                             ___flge
                            ___flmul
                           ___xxtofl
                              _setup
 ---------------------------------------------------------------------------------
 (1) _setup                                                0     0      0       0
 ---------------------------------------------------------------------------------
 (1) ___xxtofl                                            14    10      4     566
                                              3 COMMON     4     0      4
                                              0 BANK0     10    10      0
 ---------------------------------------------------------------------------------
 (1) ___flmul                                             26    18      8    2417
                                             10 BANK0     26    18      8
                          __Umul8_16
                           ___xxtofl (ARG)
 ---------------------------------------------------------------------------------
 (2) __Umul8_16                                            9     7      2     799
                                              3 COMMON     4     2      2
                                              0 BANK0      5     5      0
 ---------------------------------------------------------------------------------
 (1) ___flge                                              12     4      8     986
                                              3 COMMON     4     4      0
                                              0 BANK0      8     0      8
 ---------------------------------------------------------------------------------
 (1) _LM                                                   2     2      0      23
                                              3 COMMON     2     2      0
 ---------------------------------------------------------------------------------
 Estimated maximum stack depth 2
 ---------------------------------------------------------------------------------
 (Depth) Function   	        Calls       Base Space   Used Autos Params    Refs
 ---------------------------------------------------------------------------------
 (3) _ISR                                                  3     3      0       0
                                              0 COMMON     3     3      0
 ---------------------------------------------------------------------------------
 Estimated maximum stack depth 3
 ---------------------------------------------------------------------------------

 Call Graph Graphs:

 _main (ROOT)
   _LM
   ___flge
   ___flmul
     __Umul8_16
     ___xxtofl (ARG)
   ___xxtofl
   _setup

 _ISR (ROOT)

 Address spaces:
Name               Size   Autos  Total    Cost      Usage
BITCOMMON            E      0       0       0        0.0%
EEDATA             100      0       0       0        0.0%
NULL                 0      0       0       0        0.0%
CODE                 0      0       0       0        0.0%
COMMON               E      7       A       1       71.4%
BITSFR0              0      0       0       1        0.0%
SFR0                 0      0       0       1        0.0%
BITSFR1              0      0       0       2        0.0%
SFR1                 0      0       0       2        0.0%
STACK                0      0       0       2        0.0%
ABS                  0      0      36       3        0.0%
BITBANK0            50      0       0       4        0.0%
BITSFR3              0      0       0       4        0.0%
SFR3                 0      0       0       4        0.0%
BANK0               50     28      2C       5       55.0%
BITSFR2              0      0       0       5        0.0%
SFR2                 0      0       0       5        0.0%
BITBANK1            50      0       0       6        0.0%
BANK1               50      0       0       7        0.0%
BITBANK3            60      0       0       8        0.0%
BANK3               60      0       0       9        0.0%
BITBANK2            60      0       0      10        0.0%
BANK2               60      0       0      11        0.0%
DATA                 0      0      36      12        0.0%


Microchip Technology PIC Macro Assembler V2.31 build 20201012212115 
Symbol Table                                                                                   Thu Feb 18 22:37:23 2021

                     l31 0619                       l42 0383                       l44 0449  
                     l72 05F6                       _LM 05D6      __Umul8_16@word_mpld 0022  
                    ?_LM 0070                      l332 0527                      l335 0593  
                    l336 05AC                      l604 04D2                      l605 04DE  
                    l553 02E7                      l547 037B                      l566 05C3  
                    l559 036F                      l591 0471                      l568 05D5  
                    l593 0508                      l597 04B6                      l960 05B0  
                    l970 05D1                      l962 05B2                      l964 05B9  
                    l980 0612                      l990 05E4                      l966 05BD  
                    l982 0615                      l974 060B                      l992 05E7  
                    l968 05CC                      l984 0616                      l976 060F  
                    l994 05EA                      l986 05D7                      l978 0610  
                    l996 05EF                      l988 05DA                      l998 05F3  
                    u700 05D1                      _ISR 05F7                      u701 05D0  
                    u710 05EF                      u711 05EE                      u800 0032  
                    u801 0031                      u810 0037                      u811 0036  
                    u820 0058                      u901 0134                      u821 0057  
                    u902 013B                      u830 005E                      u903 0142  
                    u831 005D                      u680 05BD                      u840 0063  
                    u681 05BC                      u921 016A                      u841 0062  
                    u922 0171                      u850 007A                      u931 0197  
                    u923 0178                      u915 0144                      u851 0079  
                    u932 019E                      u860 007F                      u933 01A5  
                    u861 007E                      u790 002C                      u695 05C4  
                    u951 01CD                      u871 00D0                      u791 002B  
                    u952 01D4                      u872 00D7                      u961 01FA  
                    u953 01DB                      u945 01A7                      u881 00EC  
                    u873 00DE                      u962 0201                      u882 00F3  
                    u971 0227                      u963 0208                      u891 0118  
                    u883 00FA                      u980 0251                      u972 022E  
                    u892 011F                      u973 0235                      u893 0126  
                    u991 025D                      u992 0264                      u993 026B  
                    u985 024C                      _lmm 0078             ___flmul@aexp 003C  
           ___flmul@bexp 003D             ___flmul@sign 0037             ___flmul@temp 0042  
           ___flmul@prod 003E                     ??_LM 0073                     ?_ISR 0070  
                   l1000 05F6                     l1100 0245                     l1110 02B3  
                   l1102 026B                     l1030 002D                     l1022 001B  
                   l1120 02CB                     l1112 02B7                     l1104 0293  
                   l1040 0049                     l1032 0032                     l1024 0022  
                   l1130 02EC                     l1122 02CC                     l1114 02B8  
                   l1106 029C                     l1050 005E                     l1042 004E  
                   l1034 0037                     l1026 0028                     l1132 02F1  
                   l1140 0322                     l1124 02D0                     l1116 02C1  
                   l1108 02AA                     l1060 007A                     l1052 0063  
                   l1044 0054                     l1036 003F                     l1028 002C  
                   l1300 037C                     l1150 0355                     l1142 032F  
                   l1134 02FF                     l1126 02E4                     l1118 02C7  
                   l1070 00A5                     l1062 007F                     l1054 006B  
                   l1046 0058                     l1038 0041                     l1310 03DD  
                   l1302 0381                     l1240 053B                     l1152 0363  
                   l1144 033A                     l1136 0303                     l1080 0142  
                   l1072 00C2                     l1056 006D                     l1048 0059  
                   l1320 0428                     l1312 03EC                     l1304 0389  
                   l1250 05A9                     l1242 0543                     l1154 0367  
                   l1146 0349                     l1138 031C                     l1090 01A5  
                   l1082 014B                     l1074 00DE                     l1066 0088  
                   l1058 0075                     l1322 0443                     l1314 0407  
                   l1306 03BF                     l1252 05AB                     l1244 0547  
                   l1236 0509                     l1156 0368                     l1148 0353  
                   l1092 01BE                     l1084 015B                     l1076 010A  
                   l1068 0098                     l1260 0459                     l1316 0422  
                   l1308 03D8                     l1246 056B                     l1238 051F  
                   l1158 0373                     l1094 01DB                     l1086 0178  
                   l1078 0126                     l1270 0487                     l1262 0469  
                   l1248 056F                     l1096 0208                     l1088 0188  
                   l1280 04BD                     l1272 0494                     l1264 0479  
                   l1256 0450                     l1098 0218                     l1290 04F6  
                   l1282 04C8                     l1274 049B                     l1258 0455  
                   l1292 04FB                     l1284 04CC                     l1276 049F  
                   l1268 0482                     l1294 04FF                     l1286 04D6  
                   l1278 04AD                     l1296 0500                     l1288 04E0  
                   u1000 0279                     u1011 0285                     u1100 02F1  
                   u1012 028C                     u1101 02F0                     u1013 0293  
                   u1005 0274                     u1110 0303                     u1111 0302  
                   u1120 0312                     u1040 02B7                     u1041 02B6  
                   u1025 0295                     u1130 032F                     u1131 032E  
                   u1035 02AC                     u1140 0349                     u1060 02CB  
                   u1141 0348                     u1125 030D                     u1061 02CA  
                   u1150 0367                     u1070 02D0                     u1151 0366  
                   u1135 032B                     u1071 02CF                     u1055 02BA  
                   u1400 05A9                     u1080 02E4                     u1401 05A8  
                   u1145 0345                     u1081 02E3                     u1090 02EB  
                   u1410 0455                     u1091 02EA                     u1411 0454  
                   u1340 051F                     u1500 04D2                     u1420 0459  
                   u1405 05A5                     u1341 051E                     u1501 04D1  
                   u1421 0458                     u1350 053B                     u1510 04D6  
                   u1430 0479                     u1351 053A                     u1511 04D5  
                   u1431 0478                     u1360 0547                     u1520 04EB  
                   u1361 0546                     u1530 04FB                     u1450 049A  
                   u1371 0556                     u1531 04FA                     u1451 0499  
                   u1380 056F                     u1372 0557                     u1540 04FF  
                   u1381 056E                     u1373 055C                     u1541 04FE  
                   u1525 04E6                     u1445 048C                     u1374 055D  
                   u1470 04BC                     u1550 03D8                     u1607 05F1  
                   u1391 057E                     u1375 0562                     u1471 04BB  
                   u1551 03D7                     u1392 057F                     u1376 0563  
                   u1560 0407                     u1393 0584                     u1465 04AE  
                   u1561 0406                     u1394 0585                     u1490 04CC  
                   u1570 0422                     u1395 058A                     u1491 04CB  
                   u1571 0421                     u1396 058B                     u1580 0443  
                   u1485 04C1                     u1581 0442                     u1597 03E5  
                   i1l37 0604                     _main 037C                     btemp 007E  
                   start 000C                    ??_ISR 0070                    ?_main 0070  
        __end_of___flmul 037C                    _ANSEL 0188                    i1l922 05F7  
                  i1l924 05FD                    i1l926 05FF                    i1l928 0603  
                  u63_20 05FD                    u63_21 05FC                    _color 0077  
                  _setup 060B                    pclath 000A                    status 0003  
                  wtemp0 007E          __initialization 000F             __end_of_main 044D  
                 ??_main 0044                   _ADCON0 001F                   _ADRESH 001E  
                 ?_setup 0070                   _ANSELH 0189                   _INTCON 000B  
       __end_of___xxtofl 0509                   ___flge 0509                ??___flmul 0032  
     __size_of__Umul8_16 0029                   saved_w 007E               ___flge@ff1 0020  
             ___flge@ff2 0024             ___xxtofl@arg 0026             ___xxtofl@exp 0025  
           ___xxtofl@val 0073  __end_of__initialization 0017              LM@banderaLM 0074  
         __pcstackCOMMON 0070            __end_of_setup 061A               __end_of_LM 05F7  
                ??_setup 0073               __pbssBANK0 0048               __pnvCOMMON 0079  
      __end_of__Umul8_16 05D6               __pmaintext 037C                  ?___flge 0020  
             __pintentry 0004                ?___xxtofl 0073          __size_of___flge 00A4  
                ___flmul 001B                  __ptext1 060B                  __ptext2 044D  
                __ptext3 001B                  __ptext4 05AD                  __ptext5 0509  
                __ptext6 05D6                  __ptext7 05F7             __size_of_ISR 0014  
             ??___xxtofl 0020     end_of_initialization 0017                _PORTDbits 0008  
              _PORTEbits 0009            ___xxtofl@sign 0024              ___flmul@grs 0038  
         __end_of___flge 05AD      start_initialization 000F              __end_of_ISR 060B  
               ??___flge 0073                __Umul8_16 05AD                ___flmul@a 002E  
              ___flmul@b 002A              __pbssCOMMON 0077                ___latbits 0002  
          __pcstackBANK0 0020        __size_of___xxtofl 00BC                _banderaLM 0079  
               ?___flmul 002A               ?__Umul8_16 0073                _conversor 0048  
         __size_of_setup 000F              __size_of_LM 0021        interrupt_function 0004  
               _IOCBbits 0096                 _PIE1bits 008C                 _PIR1bits 000C  
             _ADCON0bits 001F               _ADCON1bits 009F              ??__Umul8_16 0075  
       __size_of___flmul 0361                 ___xxtofl 044D            __size_of_main 00D1  
               intlevel1 0000   __Umul8_16@multiplicand 0073     __Umul8_16@multiplier 0024  
      __Umul8_16@product 0020  
